; Listing generated by Microsoft (R) Optimizing Compiler Version 19.00.24215.1 

include listing.inc

INCLUDELIB MSVCRTD
INCLUDELIB OLDNAMES

PUBLIC	antlr3CommonTreeNodeStreamNewTree
PUBLIC	antlr3CommonTreeNodeStreamNew
PUBLIC	antlr3CommonTreeNodeStreamNewStream
PUBLIC	antlr3TreeNodeStreamNew
PUBLIC	??_C@_02NAHCJHOC@UP?$AA@			; `string'
PUBLIC	??_C@_04FANAOELO@DOWN?$AA@			; `string'
PUBLIC	??_C@_03KPJEKKJC@EOF?$AA@			; `string'
PUBLIC	??_C@_07DNODLGKM@INVALID?$AA@			; `string'
EXTRN	__imp_calloc:PROC
EXTRN	__imp_free:PROC
EXTRN	antlr3VectorNew:PROC
EXTRN	antlr3StackNew:PROC
EXTRN	antlr3IntStreamNew:PROC
EXTRN	antlr3CommonTokenNew:PROC
EXTRN	ANTLR3_TREE_ADAPTORNew:PROC
EXTRN	antlr3CommonTreeNewFromToken:PROC
EXTRN	antlr3SetCTAPI:PROC
EXTRN	_RTC_InitBase:PROC
EXTRN	_RTC_Shutdown:PROC
;	COMDAT pdata
pdata	SEGMENT
$pdata$antlr3CommonTreeNodeStreamNewTree DD imagerel $LN4
	DD	imagerel $LN4+97
	DD	imagerel $unwind$antlr3CommonTreeNodeStreamNewTree
pdata	ENDS
;	COMDAT pdata
pdata	SEGMENT
$pdata$antlr3CommonTreeNodeStreamNew DD imagerel $LN8
	DD	imagerel $LN8+1409
	DD	imagerel $unwind$antlr3CommonTreeNodeStreamNew
pdata	ENDS
;	COMDAT pdata
pdata	SEGMENT
$pdata$antlr3CommonTreeNodeStreamNewStream DD imagerel $LN6
	DD	imagerel $LN6+1253
	DD	imagerel $unwind$antlr3CommonTreeNodeStreamNewStream
pdata	ENDS
;	COMDAT pdata
pdata	SEGMENT
$pdata$antlr3TreeNodeStreamNew DD imagerel $LN4
	DD	imagerel $LN4+97
	DD	imagerel $unwind$antlr3TreeNodeStreamNew
pdata	ENDS
;	COMDAT pdata
pdata	SEGMENT
$pdata$addNavigationNode DD imagerel addNavigationNode
	DD	imagerel addNavigationNode+220
	DD	imagerel $unwind$addNavigationNode
pdata	ENDS
;	COMDAT pdata
pdata	SEGMENT
$pdata$hasUniqueNavigationNodes DD imagerel hasUniqueNavigationNodes
	DD	imagerel hasUniqueNavigationNodes+20
	DD	imagerel $unwind$hasUniqueNavigationNodes
pdata	ENDS
;	COMDAT pdata
pdata	SEGMENT
$pdata$newDownNode DD imagerel newDownNode
	DD	imagerel newDownNode+103
	DD	imagerel $unwind$newDownNode
pdata	ENDS
;	COMDAT pdata
pdata	SEGMENT
$pdata$newUpNode DD imagerel newUpNode
	DD	imagerel newUpNode+103
	DD	imagerel $unwind$newUpNode
pdata	ENDS
;	COMDAT pdata
pdata	SEGMENT
$pdata$reset DD	imagerel reset
	DD	imagerel reset+167
	DD	imagerel $unwind$reset
pdata	ENDS
;	COMDAT pdata
pdata	SEGMENT
$pdata$push DD	imagerel push
	DD	imagerel push+142
	DD	imagerel $unwind$push
pdata	ENDS
;	COMDAT pdata
pdata	SEGMENT
$pdata$pop DD	imagerel pop
	DD	imagerel pop+118
	DD	imagerel $unwind$pop
pdata	ENDS
;	COMDAT pdata
pdata	SEGMENT
$pdata$getLookaheadSize DD imagerel getLookaheadSize
	DD	imagerel getLookaheadSize+130
	DD	imagerel $unwind$getLookaheadSize
pdata	ENDS
;	COMDAT pdata
pdata	SEGMENT
$pdata$getTreeAdaptor DD imagerel getTreeAdaptor
	DD	imagerel getTreeAdaptor+23
	DD	imagerel $unwind$getTreeAdaptor
pdata	ENDS
;	COMDAT pdata
pdata	SEGMENT
$pdata$getTreeSource DD imagerel getTreeSource
	DD	imagerel getTreeSource+23
	DD	imagerel $unwind$getTreeSource
pdata	ENDS
;	COMDAT pdata
pdata	SEGMENT
$pdata$_LT DD	imagerel _LT
	DD	imagerel _LT+256
	DD	imagerel $unwind$_LT
pdata	ENDS
;	COMDAT pdata
pdata	SEGMENT
$pdata$get DD	imagerel get
	DD	imagerel get+120
	DD	imagerel $unwind$get
pdata	ENDS
;	COMDAT pdata
pdata	SEGMENT
$pdata$setUniqueNavigationNodes DD imagerel setUniqueNavigationNodes
	DD	imagerel setUniqueNavigationNodes+31
	DD	imagerel $unwind$setUniqueNavigationNodes
pdata	ENDS
;	COMDAT pdata
pdata	SEGMENT
$pdata$toString DD imagerel toString
	DD	imagerel toString+67
	DD	imagerel $unwind$toString
pdata	ENDS
;	COMDAT pdata
pdata	SEGMENT
$pdata$toStringSS DD imagerel toStringSS
	DD	imagerel toStringSS+121
	DD	imagerel $unwind$toStringSS
pdata	ENDS
;	COMDAT pdata
pdata	SEGMENT
$pdata$toStringWork DD imagerel toStringWork
	DD	imagerel toStringWork+467
	DD	imagerel $unwind$toStringWork
pdata	ENDS
;	COMDAT pdata
pdata	SEGMENT
$pdata$replaceChildren DD imagerel replaceChildren
	DD	imagerel replaceChildren+131
	DD	imagerel $unwind$replaceChildren
pdata	ENDS
;	COMDAT pdata
pdata	SEGMENT
$pdata$consume DD imagerel consume
	DD	imagerel consume+111
	DD	imagerel $unwind$consume
pdata	ENDS
;	COMDAT pdata
pdata	SEGMENT
$pdata$tindex DD imagerel tindex
	DD	imagerel tindex+73
	DD	imagerel $unwind$tindex
pdata	ENDS
;	COMDAT pdata
pdata	SEGMENT
$pdata$_LA DD	imagerel _LA
	DD	imagerel _LA+104
	DD	imagerel $unwind$_LA
pdata	ENDS
;	COMDAT pdata
pdata	SEGMENT
$pdata$mark DD	imagerel mark
	DD	imagerel mark+166
	DD	imagerel $unwind$mark
pdata	ENDS
;	COMDAT pdata
pdata	SEGMENT
$pdata$release DD imagerel release
	DD	imagerel release+13
	DD	imagerel $unwind$release
pdata	ENDS
;	COMDAT pdata
pdata	SEGMENT
$pdata$rewindMark DD imagerel rewindMark
	DD	imagerel rewindMark+59
	DD	imagerel $unwind$rewindMark
pdata	ENDS
;	COMDAT pdata
pdata	SEGMENT
$pdata$rewindLast DD imagerel rewindLast
	DD	imagerel rewindLast+58
	DD	imagerel $unwind$rewindLast
pdata	ENDS
;	COMDAT pdata
pdata	SEGMENT
$pdata$seek DD	imagerel seek
	DD	imagerel seek+81
	DD	imagerel $unwind$seek
pdata	ENDS
;	COMDAT pdata
pdata	SEGMENT
$pdata$size DD	imagerel size
	DD	imagerel size+117
	DD	imagerel $unwind$size
pdata	ENDS
;	COMDAT pdata
pdata	SEGMENT
$pdata$fillBuffer DD imagerel fillBuffer
	DD	imagerel fillBuffer+303
	DD	imagerel $unwind$fillBuffer
pdata	ENDS
;	COMDAT pdata
pdata	SEGMENT
$pdata$fillBufferRoot DD imagerel fillBufferRoot
	DD	imagerel fillBufferRoot+73
	DD	imagerel $unwind$fillBufferRoot
pdata	ENDS
;	COMDAT pdata
pdata	SEGMENT
$pdata$antlr3TreeNodeStreamFree DD imagerel antlr3TreeNodeStreamFree
	DD	imagerel antlr3TreeNodeStreamFree+47
	DD	imagerel $unwind$antlr3TreeNodeStreamFree
pdata	ENDS
;	COMDAT pdata
pdata	SEGMENT
$pdata$antlr3CommonTreeNodeStreamFree DD imagerel antlr3CommonTreeNodeStreamFree
	DD	imagerel antlr3CommonTreeNodeStreamFree+314
	DD	imagerel $unwind$antlr3CommonTreeNodeStreamFree
pdata	ENDS
;	COMDAT pdata
pdata	SEGMENT
$pdata$LB DD	imagerel LB
	DD	imagerel LB+171
	DD	imagerel $unwind$LB
pdata	ENDS
;	COMDAT rtc$TMZ
rtc$TMZ	SEGMENT
_RTC_Shutdown.rtc$TMZ DQ FLAT:_RTC_Shutdown
rtc$TMZ	ENDS
;	COMDAT rtc$IMZ
rtc$IMZ	SEGMENT
_RTC_InitBase.rtc$IMZ DQ FLAT:_RTC_InitBase
rtc$IMZ	ENDS
;	COMDAT ??_C@_07DNODLGKM@INVALID?$AA@
CONST	SEGMENT
??_C@_07DNODLGKM@INVALID?$AA@ DB 'INVALID', 00H		; `string'
CONST	ENDS
;	COMDAT ??_C@_03KPJEKKJC@EOF?$AA@
CONST	SEGMENT
??_C@_03KPJEKKJC@EOF?$AA@ DB 'EOF', 00H			; `string'
CONST	ENDS
;	COMDAT ??_C@_04FANAOELO@DOWN?$AA@
CONST	SEGMENT
??_C@_04FANAOELO@DOWN?$AA@ DB 'DOWN', 00H		; `string'
CONST	ENDS
;	COMDAT ??_C@_02NAHCJHOC@UP?$AA@
CONST	SEGMENT
??_C@_02NAHCJHOC@UP?$AA@ DB 'UP', 00H			; `string'
CONST	ENDS
;	COMDAT xdata
xdata	SEGMENT
$unwind$LB DD	022201H
	DD	0700a520eH
xdata	ENDS
;	COMDAT xdata
xdata	SEGMENT
$unwind$antlr3CommonTreeNodeStreamFree DD 021e01H
	DD	07006520aH
xdata	ENDS
;	COMDAT xdata
xdata	SEGMENT
$unwind$antlr3TreeNodeStreamFree DD 021e01H
	DD	07006320aH
xdata	ENDS
;	COMDAT xdata
xdata	SEGMENT
$unwind$fillBufferRoot DD 021e01H
	DD	07006320aH
xdata	ENDS
;	COMDAT xdata
xdata	SEGMENT
$unwind$fillBuffer DD 022301H
	DD	0700b520fH
xdata	ENDS
;	COMDAT xdata
xdata	SEGMENT
$unwind$size DD	021e01H
	DD	07006520aH
xdata	ENDS
;	COMDAT xdata
xdata	SEGMENT
$unwind$seek DD	022301H
	DD	0700b120fH
xdata	ENDS
;	COMDAT xdata
xdata	SEGMENT
$unwind$rewindLast DD 021e01H
	DD	07006320aH
xdata	ENDS
;	COMDAT xdata
xdata	SEGMENT
$unwind$rewindMark DD 022301H
	DD	0700b320fH
xdata	ENDS
;	COMDAT xdata
xdata	SEGMENT
$unwind$release DD 010b01H
	DD	0700bH
xdata	ENDS
;	COMDAT xdata
xdata	SEGMENT
$unwind$mark DD	021e01H
	DD	07006720aH
xdata	ENDS
;	COMDAT xdata
xdata	SEGMENT
$unwind$_LA DD	022201H
	DD	0700a520eH
xdata	ENDS
;	COMDAT xdata
xdata	SEGMENT
$unwind$tindex DD 021e01H
	DD	07006120aH
xdata	ENDS
;	COMDAT xdata
xdata	SEGMENT
$unwind$consume DD 021e01H
	DD	07006520aH
xdata	ENDS
;	COMDAT xdata
xdata	SEGMENT
$unwind$replaceChildren DD 022d01H
	DD	070157219H
xdata	ENDS
;	COMDAT xdata
xdata	SEGMENT
$unwind$toStringWork DD 022d01H
	DD	070157219H
xdata	ENDS
;	COMDAT xdata
xdata	SEGMENT
$unwind$toStringSS DD 022801H
	DD	070105214H
xdata	ENDS
;	COMDAT xdata
xdata	SEGMENT
$unwind$toString DD 021e01H
	DD	07006320aH
xdata	ENDS
;	COMDAT xdata
xdata	SEGMENT
$unwind$setUniqueNavigationNodes DD 010a01H
	DD	0700aH
xdata	ENDS
;	COMDAT xdata
xdata	SEGMENT
$unwind$get DD	022201H
	DD	0700a520eH
xdata	ENDS
;	COMDAT xdata
xdata	SEGMENT
$unwind$_LT DD	022201H
	DD	0700a520eH
xdata	ENDS
;	COMDAT xdata
xdata	SEGMENT
$unwind$getTreeSource DD 010601H
	DD	07006H
xdata	ENDS
;	COMDAT xdata
xdata	SEGMENT
$unwind$getTreeAdaptor DD 010601H
	DD	07006H
xdata	ENDS
;	COMDAT xdata
xdata	SEGMENT
$unwind$getLookaheadSize DD 021e01H
	DD	07006120aH
xdata	ENDS
;	COMDAT xdata
xdata	SEGMENT
$unwind$pop DD	021e01H
	DD	07006520aH
xdata	ENDS
;	COMDAT xdata
xdata	SEGMENT
$unwind$push DD	022201H
	DD	0700a520eH
xdata	ENDS
;	COMDAT xdata
xdata	SEGMENT
$unwind$reset DD 021e01H
	DD	07006320aH
xdata	ENDS
;	COMDAT xdata
xdata	SEGMENT
$unwind$newUpNode DD 021e01H
	DD	07006520aH
xdata	ENDS
;	COMDAT xdata
xdata	SEGMENT
$unwind$newDownNode DD 021e01H
	DD	07006520aH
xdata	ENDS
;	COMDAT xdata
xdata	SEGMENT
$unwind$hasUniqueNavigationNodes DD 010601H
	DD	07006H
xdata	ENDS
;	COMDAT xdata
xdata	SEGMENT
$unwind$addNavigationNode DD 022201H
	DD	0700a520eH
xdata	ENDS
;	COMDAT xdata
xdata	SEGMENT
$unwind$antlr3TreeNodeStreamNew DD 021501H
	DD	070025206H
xdata	ENDS
;	COMDAT xdata
xdata	SEGMENT
$unwind$antlr3CommonTreeNodeStreamNewStream DD 021e01H
	DD	07006520aH
xdata	ENDS
;	COMDAT xdata
xdata	SEGMENT
$unwind$antlr3CommonTreeNodeStreamNew DD 022201H
	DD	0700a520eH
xdata	ENDS
;	COMDAT xdata
xdata	SEGMENT
$unwind$antlr3CommonTreeNodeStreamNewTree DD 022201H
	DD	0700a520eH
xdata	ENDS
; Function compile flags: /Odtp /RTCsu
; File c:\oss\third_party\antlr\libantlr3c-3.4\src\antlr3commontreenodestream.c
;	COMDAT LB
_TEXT	SEGMENT
tv84 = 32
tns$ = 64
k$ = 72
LB	PROC						; COMDAT

; 552  : {

  00000	89 54 24 10	 mov	 DWORD PTR [rsp+16], edx
  00004	48 89 4c 24 08	 mov	 QWORD PTR [rsp+8], rcx
  00009	57		 push	 rdi
  0000a	48 83 ec 30	 sub	 rsp, 48			; 00000030H
  0000e	48 8b fc	 mov	 rdi, rsp
  00011	b9 0c 00 00 00	 mov	 ecx, 12
  00016	b8 cc cc cc cc	 mov	 eax, -858993460		; ccccccccH
  0001b	f3 ab		 rep stosd
  0001d	48 8b 4c 24 40	 mov	 rcx, QWORD PTR [rsp+64]

; 553  : 	if	( k==0)

  00022	83 7c 24 48 00	 cmp	 DWORD PTR k$[rsp], 0
  00027	75 10		 jne	 SHORT $LN2@LB

; 554  : 	{
; 555  : 		return	&(tns->ctns->INVALID_NODE.baseTree);

  00029	48 8b 44 24 40	 mov	 rax, QWORD PTR tns$[rsp]
  0002e	48 8b 00	 mov	 rax, QWORD PTR [rax]
  00031	48 05 f8 03 00
	00		 add	 rax, 1016		; 000003f8H
  00037	eb 6c		 jmp	 SHORT $LN1@LB
$LN2@LB:

; 556  : 	}
; 557  : 
; 558  : 	if	( (tns->ctns->p - k) < 0)

  00039	48 8b 44 24 40	 mov	 rax, QWORD PTR tns$[rsp]
  0003e	48 8b 00	 mov	 rax, QWORD PTR [rax]
  00041	8b 4c 24 48	 mov	 ecx, DWORD PTR k$[rsp]
  00045	8b 80 20 05 00
	00		 mov	 eax, DWORD PTR [rax+1312]
  0004b	2b c1		 sub	 eax, ecx
  0004d	85 c0		 test	 eax, eax
  0004f	7d 10		 jge	 SHORT $LN3@LB

; 559  : 	{
; 560  : 		return	&(tns->ctns->INVALID_NODE.baseTree);

  00051	48 8b 44 24 40	 mov	 rax, QWORD PTR tns$[rsp]
  00056	48 8b 00	 mov	 rax, QWORD PTR [rax]
  00059	48 05 f8 03 00
	00		 add	 rax, 1016		; 000003f8H
  0005f	eb 44		 jmp	 SHORT $LN1@LB
$LN3@LB:

; 561  : 	}
; 562  : 
; 563  : 	return tns->ctns->nodes->get(tns->ctns->nodes, tns->ctns->p - k);

  00061	48 8b 44 24 40	 mov	 rax, QWORD PTR tns$[rsp]
  00066	48 8b 00	 mov	 rax, QWORD PTR [rax]
  00069	8b 4c 24 48	 mov	 ecx, DWORD PTR k$[rsp]
  0006d	8b 80 20 05 00
	00		 mov	 eax, DWORD PTR [rax+1312]
  00073	2b c1		 sub	 eax, ecx
  00075	48 8b 4c 24 40	 mov	 rcx, QWORD PTR tns$[rsp]
  0007a	48 8b 09	 mov	 rcx, QWORD PTR [rcx]
  0007d	48 8b 54 24 40	 mov	 rdx, QWORD PTR tns$[rsp]
  00082	48 8b 12	 mov	 rdx, QWORD PTR [rdx]
  00085	48 8b 92 f8 04
	00 00		 mov	 rdx, QWORD PTR [rdx+1272]
  0008c	48 89 54 24 20	 mov	 QWORD PTR tv84[rsp], rdx
  00091	8b d0		 mov	 edx, eax
  00093	48 8b 89 f8 04
	00 00		 mov	 rcx, QWORD PTR [rcx+1272]
  0009a	48 8b 44 24 20	 mov	 rax, QWORD PTR tv84[rsp]
  0009f	ff 90 28 01 00
	00		 call	 QWORD PTR [rax+296]
$LN1@LB:

; 564  : }

  000a5	48 83 c4 30	 add	 rsp, 48			; 00000030H
  000a9	5f		 pop	 rdi
  000aa	c3		 ret	 0
LB	ENDP
_TEXT	ENDS
; Function compile flags: /Odtp /RTCsu
; File c:\oss\third_party\antlr\libantlr3c-3.4\src\antlr3commontreenodestream.c
;	COMDAT antlr3CommonTreeNodeStreamFree
_TEXT	SEGMENT
tv135 = 32
ctns$ = 64
antlr3CommonTreeNodeStreamFree PROC			; COMDAT

; 421  : {

  00000	48 89 4c 24 08	 mov	 QWORD PTR [rsp+8], rcx
  00005	57		 push	 rdi
  00006	48 83 ec 30	 sub	 rsp, 48			; 00000030H
  0000a	48 8b fc	 mov	 rdi, rsp
  0000d	b9 0c 00 00 00	 mov	 ecx, 12
  00012	b8 cc cc cc cc	 mov	 eax, -858993460		; ccccccccH
  00017	f3 ab		 rep stosd
  00019	48 8b 4c 24 40	 mov	 rcx, QWORD PTR [rsp+64]

; 422  : 
; 423  : 	// If this is a rewrting stream, then certain resources
; 424  : 	// belong to the originating node stream and we do not
; 425  : 	// free them here.
; 426  : 	//
; 427  : 	if	(ctns->isRewriter != ANTLR3_TRUE)

  0001e	48 8b 44 24 40	 mov	 rax, QWORD PTR ctns$[rsp]
  00023	0f b6 80 e8 05
	00 00		 movzx	 eax, BYTE PTR [rax+1512]
  0002a	83 f8 01	 cmp	 eax, 1
  0002d	0f 84 8d 00 00
	00		 je	 $LN2@antlr3Comm

; 428  : 	{
; 429  : 		ctns->adaptor			->free  (ctns->adaptor);

  00033	48 8b 44 24 40	 mov	 rax, QWORD PTR ctns$[rsp]
  00038	48 8b 80 10 05
	00 00		 mov	 rax, QWORD PTR [rax+1296]
  0003f	48 8b 4c 24 40	 mov	 rcx, QWORD PTR ctns$[rsp]
  00044	48 8b 89 10 05
	00 00		 mov	 rcx, QWORD PTR [rcx+1296]
  0004b	ff 90 50 01 00
	00		 call	 QWORD PTR [rax+336]

; 430  : 
; 431  : 		if	(ctns->nodeStack != NULL)

  00051	48 8b 44 24 40	 mov	 rax, QWORD PTR ctns$[rsp]
  00056	48 83 b8 18 05
	00 00 00	 cmp	 QWORD PTR [rax+1304], 0
  0005e	74 1b		 je	 SHORT $LN3@antlr3Comm

; 432  : 		{
; 433  : 			ctns->nodeStack->free(ctns->nodeStack);

  00060	48 8b 44 24 40	 mov	 rax, QWORD PTR ctns$[rsp]
  00065	48 8b 80 18 05
	00 00		 mov	 rax, QWORD PTR [rax+1304]
  0006c	48 8b 4c 24 40	 mov	 rcx, QWORD PTR ctns$[rsp]
  00071	48 8b 89 18 05
	00 00		 mov	 rcx, QWORD PTR [rcx+1304]
  00078	ff 50 10	 call	 QWORD PTR [rax+16]
$LN3@antlr3Comm:

; 434  : 		}
; 435  : 
; 436  : 		ANTLR3_FREE(ctns->INVALID_NODE.token);

  0007b	48 8b 44 24 40	 mov	 rax, QWORD PTR ctns$[rsp]
  00080	48 8b 88 d8 03
	00 00		 mov	 rcx, QWORD PTR [rax+984]
  00087	ff 15 00 00 00
	00		 call	 QWORD PTR __imp_free

; 437  : 		ANTLR3_FREE(ctns->EOF_NODE.token);

  0008d	48 8b 44 24 40	 mov	 rax, QWORD PTR ctns$[rsp]
  00092	48 8b 88 a0 02
	00 00		 mov	 rcx, QWORD PTR [rax+672]
  00099	ff 15 00 00 00
	00		 call	 QWORD PTR __imp_free

; 438  : 		ANTLR3_FREE(ctns->DOWN.token);

  0009f	48 8b 44 24 40	 mov	 rax, QWORD PTR ctns$[rsp]
  000a4	48 8b 48 30	 mov	 rcx, QWORD PTR [rax+48]
  000a8	ff 15 00 00 00
	00		 call	 QWORD PTR __imp_free

; 439  : 		ANTLR3_FREE(ctns->UP.token);

  000ae	48 8b 44 24 40	 mov	 rax, QWORD PTR ctns$[rsp]
  000b3	48 8b 88 68 01
	00 00		 mov	 rcx, QWORD PTR [rax+360]
  000ba	ff 15 00 00 00
	00		 call	 QWORD PTR __imp_free
$LN2@antlr3Comm:

; 440  : 	}
; 441  : 	
; 442  : 	if	(ctns->nodes != NULL)

  000c0	48 8b 44 24 40	 mov	 rax, QWORD PTR ctns$[rsp]
  000c5	48 83 b8 f8 04
	00 00 00	 cmp	 QWORD PTR [rax+1272], 0
  000cd	74 1e		 je	 SHORT $LN4@antlr3Comm

; 443  : 	{
; 444  : 		ctns->nodes			->free  (ctns->nodes);

  000cf	48 8b 44 24 40	 mov	 rax, QWORD PTR ctns$[rsp]
  000d4	48 8b 80 f8 04
	00 00		 mov	 rax, QWORD PTR [rax+1272]
  000db	48 8b 4c 24 40	 mov	 rcx, QWORD PTR ctns$[rsp]
  000e0	48 8b 89 f8 04
	00 00		 mov	 rcx, QWORD PTR [rcx+1272]
  000e7	ff 90 18 01 00
	00		 call	 QWORD PTR [rax+280]
$LN4@antlr3Comm:

; 445  : 	}
; 446  : 	ctns->tnstream->istream ->free  (ctns->tnstream->istream);

  000ed	48 8b 44 24 40	 mov	 rax, QWORD PTR ctns$[rsp]
  000f2	48 8b 40 08	 mov	 rax, QWORD PTR [rax+8]
  000f6	48 8b 4c 24 40	 mov	 rcx, QWORD PTR ctns$[rsp]
  000fb	48 8b 49 08	 mov	 rcx, QWORD PTR [rcx+8]
  000ff	48 8b 49 08	 mov	 rcx, QWORD PTR [rcx+8]
  00103	48 89 4c 24 20	 mov	 QWORD PTR tv135[rsp], rcx
  00108	48 8b 48 08	 mov	 rcx, QWORD PTR [rax+8]
  0010c	48 8b 44 24 20	 mov	 rax, QWORD PTR tv135[rsp]
  00111	ff 50 78	 call	 QWORD PTR [rax+120]

; 447  :     ctns->tnstream			->free  (ctns->tnstream);

  00114	48 8b 44 24 40	 mov	 rax, QWORD PTR ctns$[rsp]
  00119	48 8b 40 08	 mov	 rax, QWORD PTR [rax+8]
  0011d	48 8b 4c 24 40	 mov	 rcx, QWORD PTR ctns$[rsp]
  00122	48 8b 49 08	 mov	 rcx, QWORD PTR [rcx+8]
  00126	ff 50 48	 call	 QWORD PTR [rax+72]

; 448  : 
; 449  : 
; 450  :     ANTLR3_FREE(ctns);

  00129	48 8b 4c 24 40	 mov	 rcx, QWORD PTR ctns$[rsp]
  0012e	ff 15 00 00 00
	00		 call	 QWORD PTR __imp_free

; 451  : }

  00134	48 83 c4 30	 add	 rsp, 48			; 00000030H
  00138	5f		 pop	 rdi
  00139	c3		 ret	 0
antlr3CommonTreeNodeStreamFree ENDP
_TEXT	ENDS
; Function compile flags: /Odtp /RTCsu
; File c:\oss\third_party\antlr\libantlr3c-3.4\src\antlr3commontreenodestream.c
;	COMDAT antlr3TreeNodeStreamFree
_TEXT	SEGMENT
stream$ = 48
antlr3TreeNodeStreamFree PROC				; COMDAT

; 111  : {   

  00000	48 89 4c 24 08	 mov	 QWORD PTR [rsp+8], rcx
  00005	57		 push	 rdi
  00006	48 83 ec 20	 sub	 rsp, 32			; 00000020H
  0000a	48 8b fc	 mov	 rdi, rsp
  0000d	b9 08 00 00 00	 mov	 ecx, 8
  00012	b8 cc cc cc cc	 mov	 eax, -858993460		; ccccccccH
  00017	f3 ab		 rep stosd
  00019	48 8b 4c 24 30	 mov	 rcx, QWORD PTR [rsp+48]

; 112  :     ANTLR3_FREE(stream);

  0001e	48 8b 4c 24 30	 mov	 rcx, QWORD PTR stream$[rsp]
  00023	ff 15 00 00 00
	00		 call	 QWORD PTR __imp_free

; 113  : }

  00029	48 83 c4 20	 add	 rsp, 32			; 00000020H
  0002d	5f		 pop	 rdi
  0002e	c3		 ret	 0
antlr3TreeNodeStreamFree ENDP
_TEXT	ENDS
; Function compile flags: /Odtp /RTCsu
; File c:\oss\third_party\antlr\libantlr3c-3.4\src\antlr3commontreenodestream.c
;	COMDAT fillBufferRoot
_TEXT	SEGMENT
ctns$ = 48
fillBufferRoot PROC					; COMDAT

; 461  : {

  00000	48 89 4c 24 08	 mov	 QWORD PTR [rsp+8], rcx
  00005	57		 push	 rdi
  00006	48 83 ec 20	 sub	 rsp, 32			; 00000020H
  0000a	48 8b fc	 mov	 rdi, rsp
  0000d	b9 08 00 00 00	 mov	 ecx, 8
  00012	b8 cc cc cc cc	 mov	 eax, -858993460		; ccccccccH
  00017	f3 ab		 rep stosd
  00019	48 8b 4c 24 30	 mov	 rcx, QWORD PTR [rsp+48]

; 462  : 	// Call the generic buffer routine with the root as the
; 463  : 	// argument
; 464  : 	//
; 465  : 	fillBuffer(ctns, ctns->root);

  0001e	48 8b 44 24 30	 mov	 rax, QWORD PTR ctns$[rsp]
  00023	48 8b 90 08 05
	00 00		 mov	 rdx, QWORD PTR [rax+1288]
  0002a	48 8b 4c 24 30	 mov	 rcx, QWORD PTR ctns$[rsp]
  0002f	e8 00 00 00 00	 call	 fillBuffer

; 466  : 	ctns->p = 0;					// Indicate we are at buffer start

  00034	48 8b 44 24 30	 mov	 rax, QWORD PTR ctns$[rsp]
  00039	c7 80 20 05 00
	00 00 00 00 00	 mov	 DWORD PTR [rax+1312], 0

; 467  : }

  00043	48 83 c4 20	 add	 rsp, 32			; 00000020H
  00047	5f		 pop	 rdi
  00048	c3		 ret	 0
fillBufferRoot ENDP
_TEXT	ENDS
; Function compile flags: /Odtp /RTCsu
; File c:\oss\third_party\antlr\libantlr3c-3.4\src\antlr3commontreenodestream.c
;	COMDAT fillBuffer
_TEXT	SEGMENT
nilNode$ = 32
nCount$ = 36
c$ = 40
ctns$ = 64
t$ = 72
fillBuffer PROC						; COMDAT

; 475  : {

  00000	48 89 54 24 10	 mov	 QWORD PTR [rsp+16], rdx
  00005	48 89 4c 24 08	 mov	 QWORD PTR [rsp+8], rcx
  0000a	57		 push	 rdi
  0000b	48 83 ec 30	 sub	 rsp, 48			; 00000030H
  0000f	48 8b fc	 mov	 rdi, rsp
  00012	b9 0c 00 00 00	 mov	 ecx, 12
  00017	b8 cc cc cc cc	 mov	 eax, -858993460		; ccccccccH
  0001c	f3 ab		 rep stosd
  0001e	48 8b 4c 24 40	 mov	 rcx, QWORD PTR [rsp+64]

; 476  : 	ANTLR3_BOOLEAN	nilNode;
; 477  : 	ANTLR3_UINT32	nCount;
; 478  : 	ANTLR3_UINT32	c;
; 479  : 
; 480  : 	nilNode = ctns->adaptor->isNilNode(ctns->adaptor, t);

  00023	48 8b 44 24 40	 mov	 rax, QWORD PTR ctns$[rsp]
  00028	48 8b 80 10 05
	00 00		 mov	 rax, QWORD PTR [rax+1296]
  0002f	48 8b 54 24 48	 mov	 rdx, QWORD PTR t$[rsp]
  00034	48 8b 4c 24 40	 mov	 rcx, QWORD PTR ctns$[rsp]
  00039	48 8b 89 10 05
	00 00		 mov	 rcx, QWORD PTR [rcx+1296]
  00040	ff 50 60	 call	 QWORD PTR [rax+96]
  00043	88 44 24 20	 mov	 BYTE PTR nilNode$[rsp], al

; 481  : 
; 482  : 	// If the supplied node is not a nil (list) node then we
; 483  : 	// add in the node itself to the vector
; 484  : 	//
; 485  : 	if	(nilNode == ANTLR3_FALSE)

  00047	0f b6 44 24 20	 movzx	 eax, BYTE PTR nilNode$[rsp]
  0004c	85 c0		 test	 eax, eax
  0004e	75 26		 jne	 SHORT $LN5@fillBuffer

; 486  : 	{
; 487  : 		ctns->nodes->add(ctns->nodes, t, NULL);	

  00050	48 8b 44 24 40	 mov	 rax, QWORD PTR ctns$[rsp]
  00055	48 8b 80 f8 04
	00 00		 mov	 rax, QWORD PTR [rax+1272]
  0005c	45 33 c0	 xor	 r8d, r8d
  0005f	48 8b 54 24 48	 mov	 rdx, QWORD PTR t$[rsp]
  00064	48 8b 4c 24 40	 mov	 rcx, QWORD PTR ctns$[rsp]
  00069	48 8b 89 f8 04
	00 00		 mov	 rcx, QWORD PTR [rcx+1272]
  00070	ff 90 48 01 00
	00		 call	 QWORD PTR [rax+328]
$LN5@fillBuffer:

; 488  : 	}
; 489  : 
; 490  : 	// Only add a DOWN node if the tree is not a nil tree and
; 491  : 	// the tree does have children.
; 492  : 	//
; 493  : 	nCount = t->getChildCount(t);

  00076	48 8b 4c 24 48	 mov	 rcx, QWORD PTR t$[rsp]
  0007b	48 8b 44 24 48	 mov	 rax, QWORD PTR t$[rsp]
  00080	ff 90 88 00 00
	00		 call	 QWORD PTR [rax+136]
  00086	89 44 24 24	 mov	 DWORD PTR nCount$[rsp], eax

; 494  : 
; 495  : 	if	(nilNode == ANTLR3_FALSE && nCount>0)

  0008a	0f b6 44 24 20	 movzx	 eax, BYTE PTR nilNode$[rsp]
  0008f	85 c0		 test	 eax, eax
  00091	75 1c		 jne	 SHORT $LN6@fillBuffer
  00093	83 7c 24 24 00	 cmp	 DWORD PTR nCount$[rsp], 0
  00098	76 15		 jbe	 SHORT $LN6@fillBuffer

; 496  : 	{
; 497  : 		ctns->addNavigationNode(ctns, ANTLR3_TOKEN_DOWN);

  0009a	ba 02 00 00 00	 mov	 edx, 2
  0009f	48 8b 4c 24 40	 mov	 rcx, QWORD PTR ctns$[rsp]
  000a4	48 8b 44 24 40	 mov	 rax, QWORD PTR ctns$[rsp]
  000a9	ff 90 98 05 00
	00		 call	 QWORD PTR [rax+1432]
$LN6@fillBuffer:

; 498  : 	}
; 499  : 
; 500  : 	// We always add any children the tree contains, which is
; 501  : 	// a recursive call to this function, which will cause similar
; 502  : 	// recursion and implement a depth first addition
; 503  : 	//
; 504  : 	for	(c = 0; c < nCount; c++)

  000af	c7 44 24 28 00
	00 00 00	 mov	 DWORD PTR c$[rsp], 0
  000b7	eb 0a		 jmp	 SHORT $LN4@fillBuffer
$LN2@fillBuffer:
  000b9	8b 44 24 28	 mov	 eax, DWORD PTR c$[rsp]
  000bd	ff c0		 inc	 eax
  000bf	89 44 24 28	 mov	 DWORD PTR c$[rsp], eax
$LN4@fillBuffer:
  000c3	8b 44 24 24	 mov	 eax, DWORD PTR nCount$[rsp]
  000c7	39 44 24 28	 cmp	 DWORD PTR c$[rsp], eax
  000cb	73 37		 jae	 SHORT $LN3@fillBuffer

; 505  : 	{
; 506  : 		fillBuffer(ctns, ctns->adaptor->getChild(ctns->adaptor, t, c));

  000cd	48 8b 44 24 40	 mov	 rax, QWORD PTR ctns$[rsp]
  000d2	48 8b 80 10 05
	00 00		 mov	 rax, QWORD PTR [rax+1296]
  000d9	44 8b 44 24 28	 mov	 r8d, DWORD PTR c$[rsp]
  000de	48 8b 54 24 48	 mov	 rdx, QWORD PTR t$[rsp]
  000e3	48 8b 4c 24 40	 mov	 rcx, QWORD PTR ctns$[rsp]
  000e8	48 8b 89 10 05
	00 00		 mov	 rcx, QWORD PTR [rcx+1296]
  000ef	ff 90 d0 00 00
	00		 call	 QWORD PTR [rax+208]
  000f5	48 8b d0	 mov	 rdx, rax
  000f8	48 8b 4c 24 40	 mov	 rcx, QWORD PTR ctns$[rsp]
  000fd	e8 00 00 00 00	 call	 fillBuffer

; 507  : 	}

  00102	eb b5		 jmp	 SHORT $LN2@fillBuffer
$LN3@fillBuffer:

; 508  : 
; 509  : 	// If the tree had children and was not a nil (list) node, then we
; 510  : 	// we need to add an UP node here to match the DOWN node
; 511  : 	//
; 512  : 	if	(nilNode == ANTLR3_FALSE && nCount > 0)

  00104	0f b6 44 24 20	 movzx	 eax, BYTE PTR nilNode$[rsp]
  00109	85 c0		 test	 eax, eax
  0010b	75 1c		 jne	 SHORT $LN7@fillBuffer
  0010d	83 7c 24 24 00	 cmp	 DWORD PTR nCount$[rsp], 0
  00112	76 15		 jbe	 SHORT $LN7@fillBuffer

; 513  : 	{
; 514  : 		ctns->addNavigationNode(ctns, ANTLR3_TOKEN_UP);

  00114	ba 03 00 00 00	 mov	 edx, 3
  00119	48 8b 4c 24 40	 mov	 rcx, QWORD PTR ctns$[rsp]
  0011e	48 8b 44 24 40	 mov	 rax, QWORD PTR ctns$[rsp]
  00123	ff 90 98 05 00
	00		 call	 QWORD PTR [rax+1432]
$LN7@fillBuffer:

; 515  : 	}
; 516  : }

  00129	48 83 c4 30	 add	 rsp, 48			; 00000030H
  0012d	5f		 pop	 rdi
  0012e	c3		 ret	 0
fillBuffer ENDP
_TEXT	ENDS
; Function compile flags: /Odtp /RTCsu
; File c:\oss\third_party\antlr\libantlr3c-3.4\src\antlr3commontreenodestream.c
;	COMDAT size
_TEXT	SEGMENT
tns$ = 32
ctns$ = 40
is$ = 64
size	PROC						; COMDAT

; 732  : {

  00000	48 89 4c 24 08	 mov	 QWORD PTR [rsp+8], rcx
  00005	57		 push	 rdi
  00006	48 83 ec 30	 sub	 rsp, 48			; 00000030H
  0000a	48 8b fc	 mov	 rdi, rsp
  0000d	b9 0c 00 00 00	 mov	 ecx, 12
  00012	b8 cc cc cc cc	 mov	 eax, -858993460		; ccccccccH
  00017	f3 ab		 rep stosd
  00019	48 8b 4c 24 40	 mov	 rcx, QWORD PTR [rsp+64]

; 733  :     pANTLR3_TREE_NODE_STREAM		tns;
; 734  :     pANTLR3_COMMON_TREE_NODE_STREAM	ctns;
; 735  : 
; 736  :     tns	    = (pANTLR3_TREE_NODE_STREAM)(is->super);

  0001e	48 8b 44 24 40	 mov	 rax, QWORD PTR is$[rsp]
  00023	48 8b 40 10	 mov	 rax, QWORD PTR [rax+16]
  00027	48 89 44 24 20	 mov	 QWORD PTR tns$[rsp], rax

; 737  :     ctns    = tns->ctns;

  0002c	48 8b 44 24 20	 mov	 rax, QWORD PTR tns$[rsp]
  00031	48 8b 00	 mov	 rax, QWORD PTR [rax]
  00034	48 89 44 24 28	 mov	 QWORD PTR ctns$[rsp], rax

; 738  : 
; 739  : 	if	(ctns->p == -1)

  00039	48 8b 44 24 28	 mov	 rax, QWORD PTR ctns$[rsp]
  0003e	83 b8 20 05 00
	00 ff		 cmp	 DWORD PTR [rax+1312], -1
  00045	75 0a		 jne	 SHORT $LN2@size

; 740  : 	{
; 741  : 		fillBufferRoot(ctns);

  00047	48 8b 4c 24 28	 mov	 rcx, QWORD PTR ctns$[rsp]
  0004c	e8 00 00 00 00	 call	 fillBufferRoot
$LN2@size:

; 742  : 	}
; 743  : 
; 744  : 	return ctns->nodes->size(ctns->nodes);

  00051	48 8b 44 24 28	 mov	 rax, QWORD PTR ctns$[rsp]
  00056	48 8b 80 f8 04
	00 00		 mov	 rax, QWORD PTR [rax+1272]
  0005d	48 8b 4c 24 28	 mov	 rcx, QWORD PTR ctns$[rsp]
  00062	48 8b 89 f8 04
	00 00		 mov	 rcx, QWORD PTR [rcx+1272]
  00069	ff 90 58 01 00
	00		 call	 QWORD PTR [rax+344]

; 745  : }

  0006f	48 83 c4 30	 add	 rsp, 48			; 00000030H
  00073	5f		 pop	 rdi
  00074	c3		 ret	 0
size	ENDP
_TEXT	ENDS
; Function compile flags: /Odtp /RTCsu
; File c:\oss\third_party\antlr\libantlr3c-3.4\src\antlr3commontreenodestream.c
;	COMDAT seek
_TEXT	SEGMENT
tns$ = 0
ctns$ = 8
is$ = 32
index$ = 40
seek	PROC						; COMDAT

; 704  : {

  00000	48 89 54 24 10	 mov	 QWORD PTR [rsp+16], rdx
  00005	48 89 4c 24 08	 mov	 QWORD PTR [rsp+8], rcx
  0000a	57		 push	 rdi
  0000b	48 83 ec 10	 sub	 rsp, 16
  0000f	48 8b fc	 mov	 rdi, rsp
  00012	b9 04 00 00 00	 mov	 ecx, 4
  00017	b8 cc cc cc cc	 mov	 eax, -858993460		; ccccccccH
  0001c	f3 ab		 rep stosd
  0001e	48 8b 4c 24 20	 mov	 rcx, QWORD PTR [rsp+32]

; 705  :     pANTLR3_TREE_NODE_STREAM		tns;
; 706  :     pANTLR3_COMMON_TREE_NODE_STREAM	ctns;
; 707  : 
; 708  :     tns	    = (pANTLR3_TREE_NODE_STREAM)(is->super);

  00023	48 8b 44 24 20	 mov	 rax, QWORD PTR is$[rsp]
  00028	48 8b 40 10	 mov	 rax, QWORD PTR [rax+16]
  0002c	48 89 04 24	 mov	 QWORD PTR tns$[rsp], rax

; 709  :     ctns    = tns->ctns;

  00030	48 8b 04 24	 mov	 rax, QWORD PTR tns$[rsp]
  00034	48 8b 00	 mov	 rax, QWORD PTR [rax]
  00037	48 89 44 24 08	 mov	 QWORD PTR ctns$[rsp], rax

; 710  : 
; 711  : 	ctns->p = ANTLR3_UINT32_CAST(index);

  0003c	48 8b 44 24 08	 mov	 rax, QWORD PTR ctns$[rsp]
  00041	8b 4c 24 28	 mov	 ecx, DWORD PTR index$[rsp]
  00045	89 88 20 05 00
	00		 mov	 DWORD PTR [rax+1312], ecx

; 712  : }

  0004b	48 83 c4 10	 add	 rsp, 16
  0004f	5f		 pop	 rdi
  00050	c3		 ret	 0
seek	ENDP
_TEXT	ENDS
; Function compile flags: /Odtp /RTCsu
; File c:\oss\third_party\antlr\libantlr3c-3.4\src\antlr3commontreenodestream.c
;	COMDAT rewindLast
_TEXT	SEGMENT
is$ = 48
rewindLast PROC						; COMDAT

; 695  : {

  00000	48 89 4c 24 08	 mov	 QWORD PTR [rsp+8], rcx
  00005	57		 push	 rdi
  00006	48 83 ec 20	 sub	 rsp, 32			; 00000020H
  0000a	48 8b fc	 mov	 rdi, rsp
  0000d	b9 08 00 00 00	 mov	 ecx, 8
  00012	b8 cc cc cc cc	 mov	 eax, -858993460		; ccccccccH
  00017	f3 ab		 rep stosd
  00019	48 8b 4c 24 30	 mov	 rcx, QWORD PTR [rsp+48]

; 696  :    is->seek(is, is->lastMarker);

  0001e	48 8b 44 24 30	 mov	 rax, QWORD PTR is$[rsp]
  00023	48 8b 50 18	 mov	 rdx, QWORD PTR [rax+24]
  00027	48 8b 4c 24 30	 mov	 rcx, QWORD PTR is$[rsp]
  0002c	48 8b 44 24 30	 mov	 rax, QWORD PTR is$[rsp]
  00031	ff 50 60	 call	 QWORD PTR [rax+96]

; 697  : }

  00034	48 83 c4 20	 add	 rsp, 32			; 00000020H
  00038	5f		 pop	 rdi
  00039	c3		 ret	 0
rewindLast ENDP
_TEXT	ENDS
; Function compile flags: /Odtp /RTCsu
; File c:\oss\third_party\antlr\libantlr3c-3.4\src\antlr3commontreenodestream.c
;	COMDAT rewindMark
_TEXT	SEGMENT
is$ = 48
marker$ = 56
rewindMark PROC						; COMDAT

; 689  : {

  00000	48 89 54 24 10	 mov	 QWORD PTR [rsp+16], rdx
  00005	48 89 4c 24 08	 mov	 QWORD PTR [rsp+8], rcx
  0000a	57		 push	 rdi
  0000b	48 83 ec 20	 sub	 rsp, 32			; 00000020H
  0000f	48 8b fc	 mov	 rdi, rsp
  00012	b9 08 00 00 00	 mov	 ecx, 8
  00017	b8 cc cc cc cc	 mov	 eax, -858993460		; ccccccccH
  0001c	f3 ab		 rep stosd
  0001e	48 8b 4c 24 30	 mov	 rcx, QWORD PTR [rsp+48]

; 690  : 	is->seek(is, marker);

  00023	48 8b 54 24 38	 mov	 rdx, QWORD PTR marker$[rsp]
  00028	48 8b 4c 24 30	 mov	 rcx, QWORD PTR is$[rsp]
  0002d	48 8b 44 24 30	 mov	 rax, QWORD PTR is$[rsp]
  00032	ff 50 60	 call	 QWORD PTR [rax+96]

; 691  : }

  00035	48 83 c4 20	 add	 rsp, 32			; 00000020H
  00039	5f		 pop	 rdi
  0003a	c3		 ret	 0
rewindMark ENDP
_TEXT	ENDS
; Function compile flags: /Odtp /RTCsu
; File c:\oss\third_party\antlr\libantlr3c-3.4\src\antlr3commontreenodestream.c
;	COMDAT release
_TEXT	SEGMENT
is$ = 16
marker$ = 24
release	PROC						; COMDAT

; 678  : {

  00000	48 89 54 24 10	 mov	 QWORD PTR [rsp+16], rdx
  00005	48 89 4c 24 08	 mov	 QWORD PTR [rsp+8], rcx
  0000a	57		 push	 rdi

; 679  : }

  0000b	5f		 pop	 rdi
  0000c	c3		 ret	 0
release	ENDP
_TEXT	ENDS
; Function compile flags: /Odtp /RTCsu
; File c:\oss\third_party\antlr\libantlr3c-3.4\src\antlr3commontreenodestream.c
;	COMDAT mark
_TEXT	SEGMENT
tns$ = 32
ctns$ = 40
tv88 = 48
is$ = 80
mark	PROC						; COMDAT

; 657  : {

  00000	48 89 4c 24 08	 mov	 QWORD PTR [rsp+8], rcx
  00005	57		 push	 rdi
  00006	48 83 ec 40	 sub	 rsp, 64			; 00000040H
  0000a	48 8b fc	 mov	 rdi, rsp
  0000d	b9 10 00 00 00	 mov	 ecx, 16
  00012	b8 cc cc cc cc	 mov	 eax, -858993460		; ccccccccH
  00017	f3 ab		 rep stosd
  00019	48 8b 4c 24 50	 mov	 rcx, QWORD PTR [rsp+80]

; 658  : 	pANTLR3_TREE_NODE_STREAM		tns;
; 659  : 	pANTLR3_COMMON_TREE_NODE_STREAM	ctns;
; 660  : 
; 661  : 	tns	    = (pANTLR3_TREE_NODE_STREAM)(is->super);

  0001e	48 8b 44 24 50	 mov	 rax, QWORD PTR is$[rsp]
  00023	48 8b 40 10	 mov	 rax, QWORD PTR [rax+16]
  00027	48 89 44 24 20	 mov	 QWORD PTR tns$[rsp], rax

; 662  : 	ctns    = tns->ctns;

  0002c	48 8b 44 24 20	 mov	 rax, QWORD PTR tns$[rsp]
  00031	48 8b 00	 mov	 rax, QWORD PTR [rax]
  00034	48 89 44 24 28	 mov	 QWORD PTR ctns$[rsp], rax

; 663  : 
; 664  : 	if	(tns->ctns->p == -1)

  00039	48 8b 44 24 20	 mov	 rax, QWORD PTR tns$[rsp]
  0003e	48 8b 00	 mov	 rax, QWORD PTR [rax]
  00041	83 b8 20 05 00
	00 ff		 cmp	 DWORD PTR [rax+1312], -1
  00048	75 0d		 jne	 SHORT $LN2@mark

; 665  : 	{
; 666  : 		fillBufferRoot(tns->ctns);

  0004a	48 8b 44 24 20	 mov	 rax, QWORD PTR tns$[rsp]
  0004f	48 8b 08	 mov	 rcx, QWORD PTR [rax]
  00052	e8 00 00 00 00	 call	 fillBufferRoot
$LN2@mark:

; 667  : 	}
; 668  : 
; 669  : 	// Return the current mark point
; 670  : 	//
; 671  : 	ctns->tnstream->istream->lastMarker = ctns->tnstream->istream->index(ctns->tnstream->istream);

  00057	48 8b 44 24 28	 mov	 rax, QWORD PTR ctns$[rsp]
  0005c	48 8b 40 08	 mov	 rax, QWORD PTR [rax+8]
  00060	48 8b 4c 24 28	 mov	 rcx, QWORD PTR ctns$[rsp]
  00065	48 8b 49 08	 mov	 rcx, QWORD PTR [rcx+8]
  00069	48 8b 49 08	 mov	 rcx, QWORD PTR [rcx+8]
  0006d	48 89 4c 24 30	 mov	 QWORD PTR tv88[rsp], rcx
  00072	48 8b 48 08	 mov	 rcx, QWORD PTR [rax+8]
  00076	48 8b 44 24 30	 mov	 rax, QWORD PTR tv88[rsp]
  0007b	ff 50 40	 call	 QWORD PTR [rax+64]
  0007e	48 8b 4c 24 28	 mov	 rcx, QWORD PTR ctns$[rsp]
  00083	48 8b 49 08	 mov	 rcx, QWORD PTR [rcx+8]
  00087	48 8b 49 08	 mov	 rcx, QWORD PTR [rcx+8]
  0008b	48 89 41 18	 mov	 QWORD PTR [rcx+24], rax

; 672  : 
; 673  : 	return ctns->tnstream->istream->lastMarker;

  0008f	48 8b 44 24 28	 mov	 rax, QWORD PTR ctns$[rsp]
  00094	48 8b 40 08	 mov	 rax, QWORD PTR [rax+8]
  00098	48 8b 40 08	 mov	 rax, QWORD PTR [rax+8]
  0009c	48 8b 40 18	 mov	 rax, QWORD PTR [rax+24]

; 674  : }

  000a0	48 83 c4 40	 add	 rsp, 64			; 00000040H
  000a4	5f		 pop	 rdi
  000a5	c3		 ret	 0
mark	ENDP
_TEXT	ENDS
; Function compile flags: /Odtp /RTCsu
; File c:\oss\third_party\antlr\libantlr3c-3.4\src\antlr3commontreenodestream.c
;	COMDAT _LA
_TEXT	SEGMENT
tns$ = 32
t$ = 40
is$ = 64
i$ = 72
_LA	PROC						; COMDAT

; 632  : {

  00000	89 54 24 10	 mov	 DWORD PTR [rsp+16], edx
  00004	48 89 4c 24 08	 mov	 QWORD PTR [rsp+8], rcx
  00009	57		 push	 rdi
  0000a	48 83 ec 30	 sub	 rsp, 48			; 00000030H
  0000e	48 8b fc	 mov	 rdi, rsp
  00011	b9 0c 00 00 00	 mov	 ecx, 12
  00016	b8 cc cc cc cc	 mov	 eax, -858993460		; ccccccccH
  0001b	f3 ab		 rep stosd
  0001d	48 8b 4c 24 40	 mov	 rcx, QWORD PTR [rsp+64]

; 633  : 	pANTLR3_TREE_NODE_STREAM		tns;
; 634  : 	pANTLR3_BASE_TREE				t;
; 635  : 
; 636  : 	tns	    = (pANTLR3_TREE_NODE_STREAM)(is->super);

  00022	48 8b 44 24 40	 mov	 rax, QWORD PTR is$[rsp]
  00027	48 8b 40 10	 mov	 rax, QWORD PTR [rax+16]
  0002b	48 89 44 24 20	 mov	 QWORD PTR tns$[rsp], rax

; 637  : 
; 638  : 	// Ask LT for the 'token' at that position
; 639  : 	//
; 640  : 	t = tns->_LT(tns, i);

  00030	8b 54 24 48	 mov	 edx, DWORD PTR i$[rsp]
  00034	48 8b 4c 24 20	 mov	 rcx, QWORD PTR tns$[rsp]
  00039	48 8b 44 24 20	 mov	 rax, QWORD PTR tns$[rsp]
  0003e	ff 50 10	 call	 QWORD PTR [rax+16]
  00041	48 89 44 24 28	 mov	 QWORD PTR t$[rsp], rax

; 641  : 
; 642  : 	if	(t == NULL)

  00046	48 83 7c 24 28
	00		 cmp	 QWORD PTR t$[rsp], 0
  0004c	75 04		 jne	 SHORT $LN2@LA

; 643  : 	{
; 644  : 		return	ANTLR3_TOKEN_INVALID;

  0004e	33 c0		 xor	 eax, eax
  00050	eb 10		 jmp	 SHORT $LN1@LA
$LN2@LA:

; 645  : 	}
; 646  : 
; 647  : 	// Token node was there so return the type of it
; 648  : 	//
; 649  : 	return  t->getType(t);

  00052	48 8b 4c 24 28	 mov	 rcx, QWORD PTR t$[rsp]
  00057	48 8b 44 24 28	 mov	 rax, QWORD PTR t$[rsp]
  0005c	ff 90 a0 00 00
	00		 call	 QWORD PTR [rax+160]
$LN1@LA:

; 650  : }

  00062	48 83 c4 30	 add	 rsp, 48			; 00000030H
  00066	5f		 pop	 rdi
  00067	c3		 ret	 0
_LA	ENDP
_TEXT	ENDS
; Function compile flags: /Odtp /RTCsu
; File c:\oss\third_party\antlr\libantlr3c-3.4\src\antlr3commontreenodestream.c
;	COMDAT tindex
_TEXT	SEGMENT
tns$ = 0
ctns$ = 8
is$ = 32
tindex	PROC						; COMDAT

; 716  : {

  00000	48 89 4c 24 08	 mov	 QWORD PTR [rsp+8], rcx
  00005	57		 push	 rdi
  00006	48 83 ec 10	 sub	 rsp, 16
  0000a	48 8b fc	 mov	 rdi, rsp
  0000d	b9 04 00 00 00	 mov	 ecx, 4
  00012	b8 cc cc cc cc	 mov	 eax, -858993460		; ccccccccH
  00017	f3 ab		 rep stosd
  00019	48 8b 4c 24 20	 mov	 rcx, QWORD PTR [rsp+32]

; 717  :     pANTLR3_TREE_NODE_STREAM		tns;
; 718  :     pANTLR3_COMMON_TREE_NODE_STREAM	ctns;
; 719  : 
; 720  :     tns	    = (pANTLR3_TREE_NODE_STREAM)(is->super);

  0001e	48 8b 44 24 20	 mov	 rax, QWORD PTR is$[rsp]
  00023	48 8b 40 10	 mov	 rax, QWORD PTR [rax+16]
  00027	48 89 04 24	 mov	 QWORD PTR tns$[rsp], rax

; 721  :     ctns    = tns->ctns;

  0002b	48 8b 04 24	 mov	 rax, QWORD PTR tns$[rsp]
  0002f	48 8b 00	 mov	 rax, QWORD PTR [rax]
  00032	48 89 44 24 08	 mov	 QWORD PTR ctns$[rsp], rax

; 722  : 
; 723  : 	return (ANTLR3_MARKER)(ctns->p);

  00037	48 8b 44 24 08	 mov	 rax, QWORD PTR ctns$[rsp]
  0003c	48 63 80 20 05
	00 00		 movsxd	 rax, DWORD PTR [rax+1312]

; 724  : }

  00043	48 83 c4 10	 add	 rsp, 16
  00047	5f		 pop	 rdi
  00048	c3		 ret	 0
tindex	ENDP
_TEXT	ENDS
; Function compile flags: /Odtp /RTCsu
; File c:\oss\third_party\antlr\libantlr3c-3.4\src\antlr3commontreenodestream.c
;	COMDAT consume
_TEXT	SEGMENT
tns$ = 32
ctns$ = 40
is$ = 64
consume	PROC						; COMDAT

; 616  : {

  00000	48 89 4c 24 08	 mov	 QWORD PTR [rsp+8], rcx
  00005	57		 push	 rdi
  00006	48 83 ec 30	 sub	 rsp, 48			; 00000030H
  0000a	48 8b fc	 mov	 rdi, rsp
  0000d	b9 0c 00 00 00	 mov	 ecx, 12
  00012	b8 cc cc cc cc	 mov	 eax, -858993460		; ccccccccH
  00017	f3 ab		 rep stosd
  00019	48 8b 4c 24 40	 mov	 rcx, QWORD PTR [rsp+64]

; 617  :     pANTLR3_TREE_NODE_STREAM		tns;
; 618  :     pANTLR3_COMMON_TREE_NODE_STREAM	ctns;
; 619  : 
; 620  :     tns	    = (pANTLR3_TREE_NODE_STREAM)(is->super);

  0001e	48 8b 44 24 40	 mov	 rax, QWORD PTR is$[rsp]
  00023	48 8b 40 10	 mov	 rax, QWORD PTR [rax+16]
  00027	48 89 44 24 20	 mov	 QWORD PTR tns$[rsp], rax

; 621  :     ctns    = tns->ctns;

  0002c	48 8b 44 24 20	 mov	 rax, QWORD PTR tns$[rsp]
  00031	48 8b 00	 mov	 rax, QWORD PTR [rax]
  00034	48 89 44 24 28	 mov	 QWORD PTR ctns$[rsp], rax

; 622  : 
; 623  : 	if	(ctns->p == -1)

  00039	48 8b 44 24 28	 mov	 rax, QWORD PTR ctns$[rsp]
  0003e	83 b8 20 05 00
	00 ff		 cmp	 DWORD PTR [rax+1312], -1
  00045	75 0a		 jne	 SHORT $LN2@consume

; 624  : 	{
; 625  : 		fillBufferRoot(ctns);

  00047	48 8b 4c 24 28	 mov	 rcx, QWORD PTR ctns$[rsp]
  0004c	e8 00 00 00 00	 call	 fillBufferRoot
$LN2@consume:

; 626  : 	}
; 627  : 	ctns->p++;

  00051	48 8b 44 24 28	 mov	 rax, QWORD PTR ctns$[rsp]
  00056	8b 80 20 05 00
	00		 mov	 eax, DWORD PTR [rax+1312]
  0005c	ff c0		 inc	 eax
  0005e	48 8b 4c 24 28	 mov	 rcx, QWORD PTR ctns$[rsp]
  00063	89 81 20 05 00
	00		 mov	 DWORD PTR [rcx+1312], eax

; 628  : }

  00069	48 83 c4 30	 add	 rsp, 48			; 00000030H
  0006d	5f		 pop	 rdi
  0006e	c3		 ret	 0
consume	ENDP
_TEXT	ENDS
; Function compile flags: /Odtp /RTCsu
; File c:\oss\third_party\antlr\libantlr3c-3.4\src\antlr3commontreenodestream.c
;	COMDAT replaceChildren
_TEXT	SEGMENT
adaptor$1 = 48
cta$2 = 56
tns$ = 80
parent$ = 88
startChildIndex$ = 96
stopChildIndex$ = 104
t$ = 112
replaceChildren PROC					; COMDAT

; 929  : {

  00000	44 89 4c 24 20	 mov	 DWORD PTR [rsp+32], r9d
  00005	44 89 44 24 18	 mov	 DWORD PTR [rsp+24], r8d
  0000a	48 89 54 24 10	 mov	 QWORD PTR [rsp+16], rdx
  0000f	48 89 4c 24 08	 mov	 QWORD PTR [rsp+8], rcx
  00014	57		 push	 rdi
  00015	48 83 ec 40	 sub	 rsp, 64			; 00000040H
  00019	48 8b fc	 mov	 rdi, rsp
  0001c	b9 10 00 00 00	 mov	 ecx, 16
  00021	b8 cc cc cc cc	 mov	 eax, -858993460		; ccccccccH
  00026	f3 ab		 rep stosd
  00028	48 8b 4c 24 50	 mov	 rcx, QWORD PTR [rsp+80]

; 930  : 	if	(parent != NULL)

  0002d	48 83 7c 24 58
	00		 cmp	 QWORD PTR parent$[rsp], 0
  00033	74 48		 je	 SHORT $LN2@replaceChi

; 931  : 	{
; 932  : 		pANTLR3_BASE_TREE_ADAPTOR	adaptor;
; 933  : 		pANTLR3_COMMON_TREE_ADAPTOR	cta;
; 934  : 
; 935  : 		adaptor	= tns->getTreeAdaptor(tns);

  00035	48 8b 4c 24 50	 mov	 rcx, QWORD PTR tns$[rsp]
  0003a	48 8b 44 24 50	 mov	 rax, QWORD PTR tns$[rsp]
  0003f	ff 50 20	 call	 QWORD PTR [rax+32]
  00042	48 89 44 24 30	 mov	 QWORD PTR adaptor$1[rsp], rax

; 936  : 		cta		= (pANTLR3_COMMON_TREE_ADAPTOR)(adaptor->super);

  00047	48 8b 44 24 30	 mov	 rax, QWORD PTR adaptor$1[rsp]
  0004c	48 8b 00	 mov	 rax, QWORD PTR [rax]
  0004f	48 89 44 24 38	 mov	 QWORD PTR cta$2[rsp], rax

; 937  : 
; 938  : 		adaptor->replaceChildren(adaptor, parent, startChildIndex, stopChildIndex, t);

  00054	48 8b 44 24 70	 mov	 rax, QWORD PTR t$[rsp]
  00059	48 89 44 24 20	 mov	 QWORD PTR [rsp+32], rax
  0005e	44 8b 4c 24 68	 mov	 r9d, DWORD PTR stopChildIndex$[rsp]
  00063	44 8b 44 24 60	 mov	 r8d, DWORD PTR startChildIndex$[rsp]
  00068	48 8b 54 24 58	 mov	 rdx, QWORD PTR parent$[rsp]
  0006d	48 8b 4c 24 30	 mov	 rcx, QWORD PTR adaptor$1[rsp]
  00072	48 8b 44 24 30	 mov	 rax, QWORD PTR adaptor$1[rsp]
  00077	ff 90 48 01 00
	00		 call	 QWORD PTR [rax+328]
$LN2@replaceChi:

; 939  : 	}
; 940  : }

  0007d	48 83 c4 40	 add	 rsp, 64			; 00000040H
  00081	5f		 pop	 rdi
  00082	c3		 ret	 0
replaceChildren ENDP
_TEXT	ENDS
; Function compile flags: /Odtp /RTCsu
; File c:\oss\third_party\antlr\libantlr3c-3.4\src\antlr3commontreenodestream.c
;	COMDAT toStringWork
_TEXT	SEGMENT
n$ = 32
c$ = 36
text$1 = 40
child$2 = 48
tv161 = 56
tns$ = 80
p$ = 88
stop$ = 96
buf$ = 104
toStringWork PROC					; COMDAT

; 831  : {

  00000	4c 89 4c 24 20	 mov	 QWORD PTR [rsp+32], r9
  00005	4c 89 44 24 18	 mov	 QWORD PTR [rsp+24], r8
  0000a	48 89 54 24 10	 mov	 QWORD PTR [rsp+16], rdx
  0000f	48 89 4c 24 08	 mov	 QWORD PTR [rsp+8], rcx
  00014	57		 push	 rdi
  00015	48 83 ec 40	 sub	 rsp, 64			; 00000040H
  00019	48 8b fc	 mov	 rdi, rsp
  0001c	b9 10 00 00 00	 mov	 ecx, 16
  00021	b8 cc cc cc cc	 mov	 eax, -858993460		; ccccccccH
  00026	f3 ab		 rep stosd
  00028	48 8b 4c 24 50	 mov	 rcx, QWORD PTR [rsp+80]

; 832  : 
; 833  : 	ANTLR3_UINT32   n;
; 834  : 	ANTLR3_UINT32   c;
; 835  : 
; 836  : 	if	(!p->isNilNode(p) )

  0002d	48 8b 4c 24 58	 mov	 rcx, QWORD PTR p$[rsp]
  00032	48 8b 44 24 58	 mov	 rax, QWORD PTR p$[rsp]
  00037	ff 90 c0 00 00
	00		 call	 QWORD PTR [rax+192]
  0003d	0f b6 c0	 movzx	 eax, al
  00040	85 c0		 test	 eax, eax
  00042	0f 85 8a 00 00
	00		 jne	 $LN5@toStringWo

; 837  : 	{
; 838  : 		pANTLR3_STRING	text;
; 839  : 
; 840  : 		text	= p->toString(p);

  00048	48 8b 4c 24 58	 mov	 rcx, QWORD PTR p$[rsp]
  0004d	48 8b 44 24 58	 mov	 rax, QWORD PTR p$[rsp]
  00052	ff 90 d8 00 00
	00		 call	 QWORD PTR [rax+216]
  00058	48 89 44 24 28	 mov	 QWORD PTR text$1[rsp], rax

; 841  : 
; 842  : 		if  (text == NULL)

  0005d	48 83 7c 24 28
	00		 cmp	 QWORD PTR text$1[rsp], 0
  00063	75 5b		 jne	 SHORT $LN6@toStringWo

; 843  : 		{
; 844  : 			text = tns->ctns->stringFactory->newRaw(tns->ctns->stringFactory);

  00065	48 8b 44 24 50	 mov	 rax, QWORD PTR tns$[rsp]
  0006a	48 8b 00	 mov	 rax, QWORD PTR [rax]
  0006d	48 8b 4c 24 50	 mov	 rcx, QWORD PTR tns$[rsp]
  00072	48 8b 09	 mov	 rcx, QWORD PTR [rcx]
  00075	48 8b 49 10	 mov	 rcx, QWORD PTR [rcx+16]
  00079	48 89 4c 24 38	 mov	 QWORD PTR tv161[rsp], rcx
  0007e	48 8b 48 10	 mov	 rcx, QWORD PTR [rax+16]
  00082	48 8b 44 24 38	 mov	 rax, QWORD PTR tv161[rsp]
  00087	ff 50 10	 call	 QWORD PTR [rax+16]
  0008a	48 89 44 24 28	 mov	 QWORD PTR text$1[rsp], rax

; 845  : 
; 846  : 			text->addc	(text, ' ');

  0008f	ba 20 00 00 00	 mov	 edx, 32			; 00000020H
  00094	48 8b 4c 24 28	 mov	 rcx, QWORD PTR text$1[rsp]
  00099	48 8b 44 24 28	 mov	 rax, QWORD PTR text$1[rsp]
  0009e	ff 50 70	 call	 QWORD PTR [rax+112]

; 847  : 			text->addi	(text, p->getType(p));

  000a1	48 8b 4c 24 58	 mov	 rcx, QWORD PTR p$[rsp]
  000a6	48 8b 44 24 58	 mov	 rax, QWORD PTR p$[rsp]
  000ab	ff 90 a0 00 00
	00		 call	 QWORD PTR [rax+160]
  000b1	8b d0		 mov	 edx, eax
  000b3	48 8b 4c 24 28	 mov	 rcx, QWORD PTR text$1[rsp]
  000b8	48 8b 44 24 28	 mov	 rax, QWORD PTR text$1[rsp]
  000bd	ff 50 78	 call	 QWORD PTR [rax+120]
$LN6@toStringWo:

; 848  : 		}
; 849  : 
; 850  : 		buf->appendS(buf, text);

  000c0	48 8b 54 24 28	 mov	 rdx, QWORD PTR text$1[rsp]
  000c5	48 8b 4c 24 68	 mov	 rcx, QWORD PTR buf$[rsp]
  000ca	48 8b 44 24 68	 mov	 rax, QWORD PTR buf$[rsp]
  000cf	ff 50 58	 call	 QWORD PTR [rax+88]
$LN5@toStringWo:

; 851  : 	}
; 852  : 
; 853  : 	if	(p == stop)

  000d2	48 8b 44 24 60	 mov	 rax, QWORD PTR stop$[rsp]
  000d7	48 39 44 24 58	 cmp	 QWORD PTR p$[rsp], rax
  000dc	75 05		 jne	 SHORT $LN7@toStringWo

; 854  : 	{
; 855  : 		return;		/* Finished */

  000de	e9 ea 00 00 00	 jmp	 $LN1@toStringWo
$LN7@toStringWo:

; 856  : 	}
; 857  : 
; 858  : 	n = p->getChildCount(p);

  000e3	48 8b 4c 24 58	 mov	 rcx, QWORD PTR p$[rsp]
  000e8	48 8b 44 24 58	 mov	 rax, QWORD PTR p$[rsp]
  000ed	ff 90 88 00 00
	00		 call	 QWORD PTR [rax+136]
  000f3	89 44 24 20	 mov	 DWORD PTR n$[rsp], eax

; 859  : 
; 860  : 	if	(n > 0 && ! p->isNilNode(p) )

  000f7	83 7c 24 20 00	 cmp	 DWORD PTR n$[rsp], 0
  000fc	76 3b		 jbe	 SHORT $LN8@toStringWo
  000fe	48 8b 4c 24 58	 mov	 rcx, QWORD PTR p$[rsp]
  00103	48 8b 44 24 58	 mov	 rax, QWORD PTR p$[rsp]
  00108	ff 90 c0 00 00
	00		 call	 QWORD PTR [rax+192]
  0010e	0f b6 c0	 movzx	 eax, al
  00111	85 c0		 test	 eax, eax
  00113	75 24		 jne	 SHORT $LN8@toStringWo

; 861  : 	{
; 862  : 		buf->addc   (buf, ' ');

  00115	ba 20 00 00 00	 mov	 edx, 32			; 00000020H
  0011a	48 8b 4c 24 68	 mov	 rcx, QWORD PTR buf$[rsp]
  0011f	48 8b 44 24 68	 mov	 rax, QWORD PTR buf$[rsp]
  00124	ff 50 70	 call	 QWORD PTR [rax+112]

; 863  : 		buf->addi   (buf, ANTLR3_TOKEN_DOWN);

  00127	ba 02 00 00 00	 mov	 edx, 2
  0012c	48 8b 4c 24 68	 mov	 rcx, QWORD PTR buf$[rsp]
  00131	48 8b 44 24 68	 mov	 rax, QWORD PTR buf$[rsp]
  00136	ff 50 78	 call	 QWORD PTR [rax+120]
$LN8@toStringWo:

; 864  : 	}
; 865  : 
; 866  : 	for	(c = 0; c<n ; c++)

  00139	c7 44 24 24 00
	00 00 00	 mov	 DWORD PTR c$[rsp], 0
  00141	eb 0a		 jmp	 SHORT $LN4@toStringWo
$LN2@toStringWo:
  00143	8b 44 24 24	 mov	 eax, DWORD PTR c$[rsp]
  00147	ff c0		 inc	 eax
  00149	89 44 24 24	 mov	 DWORD PTR c$[rsp], eax
$LN4@toStringWo:
  0014d	8b 44 24 20	 mov	 eax, DWORD PTR n$[rsp]
  00151	39 44 24 24	 cmp	 DWORD PTR c$[rsp], eax
  00155	73 34		 jae	 SHORT $LN3@toStringWo

; 867  : 	{
; 868  : 		pANTLR3_BASE_TREE   child;
; 869  : 
; 870  : 		child = p->getChild(p, c);

  00157	8b 54 24 24	 mov	 edx, DWORD PTR c$[rsp]
  0015b	48 8b 4c 24 58	 mov	 rcx, QWORD PTR p$[rsp]
  00160	48 8b 44 24 58	 mov	 rax, QWORD PTR p$[rsp]
  00165	ff 50 70	 call	 QWORD PTR [rax+112]
  00168	48 89 44 24 30	 mov	 QWORD PTR child$2[rsp], rax

; 871  : 		tns->toStringWork(tns, child, stop, buf);

  0016d	4c 8b 4c 24 68	 mov	 r9, QWORD PTR buf$[rsp]
  00172	4c 8b 44 24 60	 mov	 r8, QWORD PTR stop$[rsp]
  00177	48 8b 54 24 30	 mov	 rdx, QWORD PTR child$2[rsp]
  0017c	48 8b 4c 24 50	 mov	 rcx, QWORD PTR tns$[rsp]
  00181	48 8b 44 24 50	 mov	 rax, QWORD PTR tns$[rsp]
  00186	ff 50 40	 call	 QWORD PTR [rax+64]

; 872  : 	}

  00189	eb b8		 jmp	 SHORT $LN2@toStringWo
$LN3@toStringWo:

; 873  : 
; 874  : 	if	(n > 0 && ! p->isNilNode(p) )

  0018b	83 7c 24 20 00	 cmp	 DWORD PTR n$[rsp], 0
  00190	76 3b		 jbe	 SHORT $LN9@toStringWo
  00192	48 8b 4c 24 58	 mov	 rcx, QWORD PTR p$[rsp]
  00197	48 8b 44 24 58	 mov	 rax, QWORD PTR p$[rsp]
  0019c	ff 90 c0 00 00
	00		 call	 QWORD PTR [rax+192]
  001a2	0f b6 c0	 movzx	 eax, al
  001a5	85 c0		 test	 eax, eax
  001a7	75 24		 jne	 SHORT $LN9@toStringWo

; 875  : 	{
; 876  : 		buf->addc   (buf, ' ');

  001a9	ba 20 00 00 00	 mov	 edx, 32			; 00000020H
  001ae	48 8b 4c 24 68	 mov	 rcx, QWORD PTR buf$[rsp]
  001b3	48 8b 44 24 68	 mov	 rax, QWORD PTR buf$[rsp]
  001b8	ff 50 70	 call	 QWORD PTR [rax+112]

; 877  : 		buf->addi   (buf, ANTLR3_TOKEN_UP);

  001bb	ba 03 00 00 00	 mov	 edx, 3
  001c0	48 8b 4c 24 68	 mov	 rcx, QWORD PTR buf$[rsp]
  001c5	48 8b 44 24 68	 mov	 rax, QWORD PTR buf$[rsp]
  001ca	ff 50 78	 call	 QWORD PTR [rax+120]
$LN9@toStringWo:
$LN1@toStringWo:

; 878  : 	}
; 879  : }

  001cd	48 83 c4 40	 add	 rsp, 64			; 00000040H
  001d1	5f		 pop	 rdi
  001d2	c3		 ret	 0
toStringWork ENDP
_TEXT	ENDS
; Function compile flags: /Odtp /RTCsu
; File c:\oss\third_party\antlr\libantlr3c-3.4\src\antlr3commontreenodestream.c
;	COMDAT toStringSS
_TEXT	SEGMENT
buf$ = 32
tv76 = 40
tns$ = 64
start$ = 72
stop$ = 80
toStringSS PROC						; COMDAT

; 819  : {

  00000	4c 89 44 24 18	 mov	 QWORD PTR [rsp+24], r8
  00005	48 89 54 24 10	 mov	 QWORD PTR [rsp+16], rdx
  0000a	48 89 4c 24 08	 mov	 QWORD PTR [rsp+8], rcx
  0000f	57		 push	 rdi
  00010	48 83 ec 30	 sub	 rsp, 48			; 00000030H
  00014	48 8b fc	 mov	 rdi, rsp
  00017	b9 0c 00 00 00	 mov	 ecx, 12
  0001c	b8 cc cc cc cc	 mov	 eax, -858993460		; ccccccccH
  00021	f3 ab		 rep stosd
  00023	48 8b 4c 24 40	 mov	 rcx, QWORD PTR [rsp+64]

; 820  :     pANTLR3_STRING  buf;
; 821  : 
; 822  :     buf = tns->ctns->stringFactory->newRaw(tns->ctns->stringFactory);

  00028	48 8b 44 24 40	 mov	 rax, QWORD PTR tns$[rsp]
  0002d	48 8b 00	 mov	 rax, QWORD PTR [rax]
  00030	48 8b 4c 24 40	 mov	 rcx, QWORD PTR tns$[rsp]
  00035	48 8b 09	 mov	 rcx, QWORD PTR [rcx]
  00038	48 8b 49 10	 mov	 rcx, QWORD PTR [rcx+16]
  0003c	48 89 4c 24 28	 mov	 QWORD PTR tv76[rsp], rcx
  00041	48 8b 48 10	 mov	 rcx, QWORD PTR [rax+16]
  00045	48 8b 44 24 28	 mov	 rax, QWORD PTR tv76[rsp]
  0004a	ff 50 10	 call	 QWORD PTR [rax+16]
  0004d	48 89 44 24 20	 mov	 QWORD PTR buf$[rsp], rax

; 823  : 
; 824  :     tns->toStringWork(tns, start, stop, buf);

  00052	4c 8b 4c 24 20	 mov	 r9, QWORD PTR buf$[rsp]
  00057	4c 8b 44 24 50	 mov	 r8, QWORD PTR stop$[rsp]
  0005c	48 8b 54 24 48	 mov	 rdx, QWORD PTR start$[rsp]
  00061	48 8b 4c 24 40	 mov	 rcx, QWORD PTR tns$[rsp]
  00066	48 8b 44 24 40	 mov	 rax, QWORD PTR tns$[rsp]
  0006b	ff 50 40	 call	 QWORD PTR [rax+64]

; 825  : 
; 826  :     return  buf;

  0006e	48 8b 44 24 20	 mov	 rax, QWORD PTR buf$[rsp]

; 827  : }

  00073	48 83 c4 30	 add	 rsp, 48			; 00000030H
  00077	5f		 pop	 rdi
  00078	c3		 ret	 0
toStringSS ENDP
_TEXT	ENDS
; Function compile flags: /Odtp /RTCsu
; File c:\oss\third_party\antlr\libantlr3c-3.4\src\antlr3commontreenodestream.c
;	COMDAT toString
_TEXT	SEGMENT
tns$ = 48
toString PROC						; COMDAT

; 812  : {

  00000	48 89 4c 24 08	 mov	 QWORD PTR [rsp+8], rcx
  00005	57		 push	 rdi
  00006	48 83 ec 20	 sub	 rsp, 32			; 00000020H
  0000a	48 8b fc	 mov	 rdi, rsp
  0000d	b9 08 00 00 00	 mov	 ecx, 8
  00012	b8 cc cc cc cc	 mov	 eax, -858993460		; ccccccccH
  00017	f3 ab		 rep stosd
  00019	48 8b 4c 24 30	 mov	 rcx, QWORD PTR [rsp+48]

; 813  : 
; 814  :     return  tns->toStringSS(tns, tns->ctns->root, NULL);

  0001e	48 8b 44 24 30	 mov	 rax, QWORD PTR tns$[rsp]
  00023	48 8b 00	 mov	 rax, QWORD PTR [rax]
  00026	45 33 c0	 xor	 r8d, r8d
  00029	48 8b 90 08 05
	00 00		 mov	 rdx, QWORD PTR [rax+1288]
  00030	48 8b 4c 24 30	 mov	 rcx, QWORD PTR tns$[rsp]
  00035	48 8b 44 24 30	 mov	 rax, QWORD PTR tns$[rsp]
  0003a	ff 50 38	 call	 QWORD PTR [rax+56]

; 815  : }

  0003d	48 83 c4 20	 add	 rsp, 32			; 00000020H
  00041	5f		 pop	 rdi
  00042	c3		 ret	 0
toString ENDP
_TEXT	ENDS
; Function compile flags: /Odtp /RTCsu
; File c:\oss\third_party\antlr\libantlr3c-3.4\src\antlr3commontreenodestream.c
;	COMDAT setUniqueNavigationNodes
_TEXT	SEGMENT
tns$ = 16
uniqueNavigationNodes$ = 24
setUniqueNavigationNodes PROC				; COMDAT

; 801  : {

  00000	88 54 24 10	 mov	 BYTE PTR [rsp+16], dl
  00004	48 89 4c 24 08	 mov	 QWORD PTR [rsp+8], rcx
  00009	57		 push	 rdi

; 802  :     tns->ctns->uniqueNavigationNodes = uniqueNavigationNodes;

  0000a	48 8b 44 24 10	 mov	 rax, QWORD PTR tns$[rsp]
  0000f	48 8b 00	 mov	 rax, QWORD PTR [rax]
  00012	0f b6 4c 24 18	 movzx	 ecx, BYTE PTR uniqueNavigationNodes$[rsp]
  00017	88 88 00 05 00
	00		 mov	 BYTE PTR [rax+1280], cl

; 803  : }

  0001d	5f		 pop	 rdi
  0001e	c3		 ret	 0
setUniqueNavigationNodes ENDP
_TEXT	ENDS
; Function compile flags: /Odtp /RTCsu
; File c:\oss\third_party\antlr\libantlr3c-3.4\src\antlr3commontreenodestream.c
;	COMDAT get
_TEXT	SEGMENT
tv77 = 32
tns$ = 64
k$ = 72
get	PROC						; COMDAT

; 944  : {

  00000	89 54 24 10	 mov	 DWORD PTR [rsp+16], edx
  00004	48 89 4c 24 08	 mov	 QWORD PTR [rsp+8], rcx
  00009	57		 push	 rdi
  0000a	48 83 ec 30	 sub	 rsp, 48			; 00000030H
  0000e	48 8b fc	 mov	 rdi, rsp
  00011	b9 0c 00 00 00	 mov	 ecx, 12
  00016	b8 cc cc cc cc	 mov	 eax, -858993460		; ccccccccH
  0001b	f3 ab		 rep stosd
  0001d	48 8b 4c 24 40	 mov	 rcx, QWORD PTR [rsp+64]

; 945  : 	if	(tns->ctns->p == -1)

  00022	48 8b 44 24 40	 mov	 rax, QWORD PTR tns$[rsp]
  00027	48 8b 00	 mov	 rax, QWORD PTR [rax]
  0002a	83 b8 20 05 00
	00 ff		 cmp	 DWORD PTR [rax+1312], -1
  00031	75 0d		 jne	 SHORT $LN2@get

; 946  : 	{
; 947  : 		fillBufferRoot(tns->ctns);

  00033	48 8b 44 24 40	 mov	 rax, QWORD PTR tns$[rsp]
  00038	48 8b 08	 mov	 rcx, QWORD PTR [rax]
  0003b	e8 00 00 00 00	 call	 fillBufferRoot
$LN2@get:

; 948  : 	}
; 949  : 
; 950  : 	return tns->ctns->nodes->get(tns->ctns->nodes, k);

  00040	48 8b 44 24 40	 mov	 rax, QWORD PTR tns$[rsp]
  00045	48 8b 00	 mov	 rax, QWORD PTR [rax]
  00048	48 8b 4c 24 40	 mov	 rcx, QWORD PTR tns$[rsp]
  0004d	48 8b 09	 mov	 rcx, QWORD PTR [rcx]
  00050	48 8b 89 f8 04
	00 00		 mov	 rcx, QWORD PTR [rcx+1272]
  00057	48 89 4c 24 20	 mov	 QWORD PTR tv77[rsp], rcx
  0005c	8b 54 24 48	 mov	 edx, DWORD PTR k$[rsp]
  00060	48 8b 88 f8 04
	00 00		 mov	 rcx, QWORD PTR [rax+1272]
  00067	48 8b 44 24 20	 mov	 rax, QWORD PTR tv77[rsp]
  0006c	ff 90 28 01 00
	00		 call	 QWORD PTR [rax+296]

; 951  : }

  00072	48 83 c4 30	 add	 rsp, 48			; 00000030H
  00076	5f		 pop	 rdi
  00077	c3		 ret	 0
get	ENDP
_TEXT	ENDS
; Function compile flags: /Odtp /RTCsu
; File c:\oss\third_party\antlr\libantlr3c-3.4\src\antlr3commontreenodestream.c
;	COMDAT _LT
_TEXT	SEGMENT
tv131 = 32
tns$ = 64
k$ = 72
_LT	PROC						; COMDAT

; 578  : {

  00000	89 54 24 10	 mov	 DWORD PTR [rsp+16], edx
  00004	48 89 4c 24 08	 mov	 QWORD PTR [rsp+8], rcx
  00009	57		 push	 rdi
  0000a	48 83 ec 30	 sub	 rsp, 48			; 00000030H
  0000e	48 8b fc	 mov	 rdi, rsp
  00011	b9 0c 00 00 00	 mov	 ecx, 12
  00016	b8 cc cc cc cc	 mov	 eax, -858993460		; ccccccccH
  0001b	f3 ab		 rep stosd
  0001d	48 8b 4c 24 40	 mov	 rcx, QWORD PTR [rsp+64]

; 579  : 	if	(tns->ctns->p == -1)

  00022	48 8b 44 24 40	 mov	 rax, QWORD PTR tns$[rsp]
  00027	48 8b 00	 mov	 rax, QWORD PTR [rax]
  0002a	83 b8 20 05 00
	00 ff		 cmp	 DWORD PTR [rax+1312], -1
  00031	75 0d		 jne	 SHORT $LN2@LT

; 580  : 	{
; 581  : 		fillBufferRoot(tns->ctns);

  00033	48 8b 44 24 40	 mov	 rax, QWORD PTR tns$[rsp]
  00038	48 8b 08	 mov	 rcx, QWORD PTR [rax]
  0003b	e8 00 00 00 00	 call	 fillBufferRoot
$LN2@LT:

; 582  : 	}
; 583  : 
; 584  : 	if	(k < 0)

  00040	83 7c 24 48 00	 cmp	 DWORD PTR k$[rsp], 0
  00045	7d 19		 jge	 SHORT $LN3@LT

; 585  : 	{
; 586  : 		return LB(tns, -k);

  00047	8b 44 24 48	 mov	 eax, DWORD PTR k$[rsp]
  0004b	f7 d8		 neg	 eax
  0004d	8b d0		 mov	 edx, eax
  0004f	48 8b 4c 24 40	 mov	 rcx, QWORD PTR tns$[rsp]
  00054	e8 00 00 00 00	 call	 LB
  00059	e9 9c 00 00 00	 jmp	 $LN1@LT

; 587  : 	}

  0005e	eb 1a		 jmp	 SHORT $LN4@LT
$LN3@LT:

; 588  : 	else if	(k == 0)

  00060	83 7c 24 48 00	 cmp	 DWORD PTR k$[rsp], 0
  00065	75 13		 jne	 SHORT $LN5@LT

; 589  : 	{
; 590  : 		return	&(tns->ctns->INVALID_NODE.baseTree);

  00067	48 8b 44 24 40	 mov	 rax, QWORD PTR tns$[rsp]
  0006c	48 8b 00	 mov	 rax, QWORD PTR [rax]
  0006f	48 05 f8 03 00
	00		 add	 rax, 1016		; 000003f8H
  00075	e9 80 00 00 00	 jmp	 $LN1@LT
$LN5@LT:
$LN4@LT:

; 591  : 	}
; 592  : 
; 593  : 	// k was a legitimate request, 
; 594  : 	//
; 595  : 	if	(( tns->ctns->p + k - 1) >= (ANTLR3_INT32)(tns->ctns->nodes->count))

  0007a	48 8b 44 24 40	 mov	 rax, QWORD PTR tns$[rsp]
  0007f	48 8b 00	 mov	 rax, QWORD PTR [rax]
  00082	8b 80 20 05 00
	00		 mov	 eax, DWORD PTR [rax+1312]
  00088	8b 4c 24 48	 mov	 ecx, DWORD PTR k$[rsp]
  0008c	8d 44 08 ff	 lea	 eax, DWORD PTR [rax+rcx-1]
  00090	48 8b 4c 24 40	 mov	 rcx, QWORD PTR tns$[rsp]
  00095	48 8b 09	 mov	 rcx, QWORD PTR [rcx]
  00098	48 8b 89 f8 04
	00 00		 mov	 rcx, QWORD PTR [rcx+1272]
  0009f	3b 41 08	 cmp	 eax, DWORD PTR [rcx+8]
  000a2	7c 10		 jl	 SHORT $LN6@LT

; 596  : 	{
; 597  : 		return &(tns->ctns->EOF_NODE.baseTree);

  000a4	48 8b 44 24 40	 mov	 rax, QWORD PTR tns$[rsp]
  000a9	48 8b 00	 mov	 rax, QWORD PTR [rax]
  000ac	48 05 c0 02 00
	00		 add	 rax, 704		; 000002c0H
  000b2	eb 46		 jmp	 SHORT $LN1@LT
$LN6@LT:

; 598  : 	}
; 599  : 
; 600  : 	return	tns->ctns->nodes->get(tns->ctns->nodes, tns->ctns->p + k - 1);

  000b4	48 8b 44 24 40	 mov	 rax, QWORD PTR tns$[rsp]
  000b9	48 8b 00	 mov	 rax, QWORD PTR [rax]
  000bc	8b 80 20 05 00
	00		 mov	 eax, DWORD PTR [rax+1312]
  000c2	8b 4c 24 48	 mov	 ecx, DWORD PTR k$[rsp]
  000c6	8d 44 08 ff	 lea	 eax, DWORD PTR [rax+rcx-1]
  000ca	48 8b 4c 24 40	 mov	 rcx, QWORD PTR tns$[rsp]
  000cf	48 8b 09	 mov	 rcx, QWORD PTR [rcx]
  000d2	48 8b 54 24 40	 mov	 rdx, QWORD PTR tns$[rsp]
  000d7	48 8b 12	 mov	 rdx, QWORD PTR [rdx]
  000da	48 8b 92 f8 04
	00 00		 mov	 rdx, QWORD PTR [rdx+1272]
  000e1	48 89 54 24 20	 mov	 QWORD PTR tv131[rsp], rdx
  000e6	8b d0		 mov	 edx, eax
  000e8	48 8b 89 f8 04
	00 00		 mov	 rcx, QWORD PTR [rcx+1272]
  000ef	48 8b 44 24 20	 mov	 rax, QWORD PTR tv131[rsp]
  000f4	ff 90 28 01 00
	00		 call	 QWORD PTR [rax+296]
$LN1@LT:

; 601  : }

  000fa	48 83 c4 30	 add	 rsp, 48			; 00000030H
  000fe	5f		 pop	 rdi
  000ff	c3		 ret	 0
_LT	ENDP
_TEXT	ENDS
; Function compile flags: /Odtp /RTCsu
; File c:\oss\third_party\antlr\libantlr3c-3.4\src\antlr3commontreenodestream.c
;	COMDAT getTreeSource
_TEXT	SEGMENT
tns$ = 16
getTreeSource PROC					; COMDAT

; 608  : {

  00000	48 89 4c 24 08	 mov	 QWORD PTR [rsp+8], rcx
  00005	57		 push	 rdi

; 609  :     return  tns->ctns->root;

  00006	48 8b 44 24 10	 mov	 rax, QWORD PTR tns$[rsp]
  0000b	48 8b 00	 mov	 rax, QWORD PTR [rax]
  0000e	48 8b 80 08 05
	00 00		 mov	 rax, QWORD PTR [rax+1288]

; 610  : }

  00015	5f		 pop	 rdi
  00016	c3		 ret	 0
getTreeSource ENDP
_TEXT	ENDS
; Function compile flags: /Odtp /RTCsu
; File c:\oss\third_party\antlr\libantlr3c-3.4\src\antlr3commontreenodestream.c
;	COMDAT getTreeAdaptor
_TEXT	SEGMENT
tns$ = 16
getTreeAdaptor PROC					; COMDAT

; 789  : {

  00000	48 89 4c 24 08	 mov	 QWORD PTR [rsp+8], rcx
  00005	57		 push	 rdi

; 790  :     return  tns->ctns->adaptor;

  00006	48 8b 44 24 10	 mov	 rax, QWORD PTR tns$[rsp]
  0000b	48 8b 00	 mov	 rax, QWORD PTR [rax]
  0000e	48 8b 80 10 05
	00 00		 mov	 rax, QWORD PTR [rax+1296]

; 791  : }

  00015	5f		 pop	 rdi
  00016	c3		 ret	 0
getTreeAdaptor ENDP
_TEXT	ENDS
; Function compile flags: /Odtp /RTCsu
; File c:\oss\third_party\antlr\libantlr3c-3.4\src\antlr3commontreenodestream.c
;	COMDAT getLookaheadSize
_TEXT	SEGMENT
tv75 = 0
ctns$ = 32
getLookaheadSize PROC					; COMDAT

; 883  : {

  00000	48 89 4c 24 08	 mov	 QWORD PTR [rsp+8], rcx
  00005	57		 push	 rdi
  00006	48 83 ec 10	 sub	 rsp, 16
  0000a	48 8b fc	 mov	 rdi, rsp
  0000d	b9 04 00 00 00	 mov	 ecx, 4
  00012	b8 cc cc cc cc	 mov	 eax, -858993460		; ccccccccH
  00017	f3 ab		 rep stosd
  00019	48 8b 4c 24 20	 mov	 rcx, QWORD PTR [rsp+32]

; 884  :     return	ctns->tail < ctns->head 

  0001e	48 8b 44 24 20	 mov	 rax, QWORD PTR ctns$[rsp]
  00023	48 8b 4c 24 20	 mov	 rcx, QWORD PTR ctns$[rsp]
  00028	8b 89 54 05 00
	00		 mov	 ecx, DWORD PTR [rcx+1364]
  0002e	39 88 58 05 00
	00		 cmp	 DWORD PTR [rax+1368], ecx
  00034	73 28		 jae	 SHORT $LN3@getLookahe
  00036	48 8b 44 24 20	 mov	 rax, QWORD PTR ctns$[rsp]
  0003b	48 8b 4c 24 20	 mov	 rcx, QWORD PTR ctns$[rsp]
  00040	8b 89 54 05 00
	00		 mov	 ecx, DWORD PTR [rcx+1364]
  00046	8b 80 50 05 00
	00		 mov	 eax, DWORD PTR [rax+1360]
  0004c	2b c1		 sub	 eax, ecx
  0004e	48 8b 4c 24 20	 mov	 rcx, QWORD PTR ctns$[rsp]
  00053	03 81 58 05 00
	00		 add	 eax, DWORD PTR [rcx+1368]
  00059	89 04 24	 mov	 DWORD PTR tv75[rsp], eax
  0005c	eb 1b		 jmp	 SHORT $LN4@getLookahe
$LN3@getLookahe:
  0005e	48 8b 44 24 20	 mov	 rax, QWORD PTR ctns$[rsp]
  00063	48 8b 4c 24 20	 mov	 rcx, QWORD PTR ctns$[rsp]
  00068	8b 89 54 05 00
	00		 mov	 ecx, DWORD PTR [rcx+1364]
  0006e	8b 80 58 05 00
	00		 mov	 eax, DWORD PTR [rax+1368]
  00074	2b c1		 sub	 eax, ecx
  00076	89 04 24	 mov	 DWORD PTR tv75[rsp], eax
$LN4@getLookahe:
  00079	8b 04 24	 mov	 eax, DWORD PTR tv75[rsp]

; 885  : 	    ?	(ctns->lookAheadLength - ctns->head + ctns->tail)
; 886  : 	    :	(ctns->tail - ctns->head);
; 887  : }

  0007c	48 83 c4 10	 add	 rsp, 16
  00080	5f		 pop	 rdi
  00081	c3		 ret	 0
getLookaheadSize ENDP
_TEXT	ENDS
; Function compile flags: /Odtp /RTCsu
; File c:\oss\third_party\antlr\libantlr3c-3.4\src\antlr3commontreenodestream.c
;	COMDAT pop
_TEXT	SEGMENT
retVal$ = 32
tv78 = 40
ctns$ = 64
pop	PROC						; COMDAT

; 962  : {

  00000	48 89 4c 24 08	 mov	 QWORD PTR [rsp+8], rcx
  00005	57		 push	 rdi
  00006	48 83 ec 30	 sub	 rsp, 48			; 00000030H
  0000a	48 8b fc	 mov	 rdi, rsp
  0000d	b9 0c 00 00 00	 mov	 ecx, 12
  00012	b8 cc cc cc cc	 mov	 eax, -858993460		; ccccccccH
  00017	f3 ab		 rep stosd
  00019	48 8b 4c 24 40	 mov	 rcx, QWORD PTR [rsp+64]

; 963  : 	ANTLR3_INT32	retVal;
; 964  : 
; 965  : 	retVal = ANTLR3_UINT32_CAST(ctns->nodeStack->pop(ctns->nodeStack));

  0001e	48 8b 44 24 40	 mov	 rax, QWORD PTR ctns$[rsp]
  00023	48 8b 80 18 05
	00 00		 mov	 rax, QWORD PTR [rax+1304]
  0002a	48 8b 4c 24 40	 mov	 rcx, QWORD PTR ctns$[rsp]
  0002f	48 8b 89 18 05
	00 00		 mov	 rcx, QWORD PTR [rcx+1304]
  00036	ff 50 18	 call	 QWORD PTR [rax+24]
  00039	89 44 24 20	 mov	 DWORD PTR retVal$[rsp], eax

; 966  : 	ctns->tnstream->istream->seek(ctns->tnstream->istream, retVal);

  0003d	48 63 44 24 20	 movsxd	 rax, DWORD PTR retVal$[rsp]
  00042	48 8b 4c 24 40	 mov	 rcx, QWORD PTR ctns$[rsp]
  00047	48 8b 49 08	 mov	 rcx, QWORD PTR [rcx+8]
  0004b	48 8b 54 24 40	 mov	 rdx, QWORD PTR ctns$[rsp]
  00050	48 8b 52 08	 mov	 rdx, QWORD PTR [rdx+8]
  00054	48 8b 52 08	 mov	 rdx, QWORD PTR [rdx+8]
  00058	48 89 54 24 28	 mov	 QWORD PTR tv78[rsp], rdx
  0005d	48 8b d0	 mov	 rdx, rax
  00060	48 8b 49 08	 mov	 rcx, QWORD PTR [rcx+8]
  00064	48 8b 44 24 28	 mov	 rax, QWORD PTR tv78[rsp]
  00069	ff 50 60	 call	 QWORD PTR [rax+96]

; 967  : 	return retVal;

  0006c	8b 44 24 20	 mov	 eax, DWORD PTR retVal$[rsp]

; 968  : }

  00070	48 83 c4 30	 add	 rsp, 48			; 00000030H
  00074	5f		 pop	 rdi
  00075	c3		 ret	 0
pop	ENDP
_TEXT	ENDS
; Function compile flags: /Odtp /RTCsu
; File c:\oss\third_party\antlr\libantlr3c-3.4\src\antlr3commontreenodestream.c
;	COMDAT push
_TEXT	SEGMENT
tv83 = 32
tv80 = 40
ctns$ = 64
index$ = 72
push	PROC						; COMDAT

; 955  : {

  00000	89 54 24 10	 mov	 DWORD PTR [rsp+16], edx
  00004	48 89 4c 24 08	 mov	 QWORD PTR [rsp+8], rcx
  00009	57		 push	 rdi
  0000a	48 83 ec 30	 sub	 rsp, 48			; 00000030H
  0000e	48 8b fc	 mov	 rdi, rsp
  00011	b9 0c 00 00 00	 mov	 ecx, 12
  00016	b8 cc cc cc cc	 mov	 eax, -858993460		; ccccccccH
  0001b	f3 ab		 rep stosd
  0001d	48 8b 4c 24 40	 mov	 rcx, QWORD PTR [rsp+64]

; 956  : 	ctns->nodeStack->push(ctns->nodeStack, ANTLR3_FUNC_PTR(ctns->p), NULL);	// Save current index

  00022	48 8b 44 24 40	 mov	 rax, QWORD PTR ctns$[rsp]
  00027	48 63 80 20 05
	00 00		 movsxd	 rax, DWORD PTR [rax+1312]
  0002e	48 8b 4c 24 40	 mov	 rcx, QWORD PTR ctns$[rsp]
  00033	48 8b 89 18 05
	00 00		 mov	 rcx, QWORD PTR [rcx+1304]
  0003a	48 89 4c 24 20	 mov	 QWORD PTR tv83[rsp], rcx
  0003f	45 33 c0	 xor	 r8d, r8d
  00042	48 8b d0	 mov	 rdx, rax
  00045	48 8b 44 24 40	 mov	 rax, QWORD PTR ctns$[rsp]
  0004a	48 8b 88 18 05
	00 00		 mov	 rcx, QWORD PTR [rax+1304]
  00051	48 8b 44 24 20	 mov	 rax, QWORD PTR tv83[rsp]
  00056	ff 50 28	 call	 QWORD PTR [rax+40]

; 957  : 	ctns->tnstream->istream->seek(ctns->tnstream->istream, index);

  00059	48 63 44 24 48	 movsxd	 rax, DWORD PTR index$[rsp]
  0005e	48 8b 4c 24 40	 mov	 rcx, QWORD PTR ctns$[rsp]
  00063	48 8b 49 08	 mov	 rcx, QWORD PTR [rcx+8]
  00067	48 8b 54 24 40	 mov	 rdx, QWORD PTR ctns$[rsp]
  0006c	48 8b 52 08	 mov	 rdx, QWORD PTR [rdx+8]
  00070	48 8b 52 08	 mov	 rdx, QWORD PTR [rdx+8]
  00074	48 89 54 24 28	 mov	 QWORD PTR tv80[rsp], rdx
  00079	48 8b d0	 mov	 rdx, rax
  0007c	48 8b 49 08	 mov	 rcx, QWORD PTR [rcx+8]
  00080	48 8b 44 24 28	 mov	 rax, QWORD PTR tv80[rsp]
  00085	ff 50 60	 call	 QWORD PTR [rax+96]

; 958  : }

  00088	48 83 c4 30	 add	 rsp, 48			; 00000030H
  0008c	5f		 pop	 rdi
  0008d	c3		 ret	 0
push	ENDP
_TEXT	ENDS
; Function compile flags: /Odtp /RTCsu
; File c:\oss\third_party\antlr\libantlr3c-3.4\src\antlr3commontreenodestream.c
;	COMDAT reset
_TEXT	SEGMENT
ctns$ = 48
reset	PROC						; COMDAT

; 527  : {

  00000	48 89 4c 24 08	 mov	 QWORD PTR [rsp+8], rcx
  00005	57		 push	 rdi
  00006	48 83 ec 20	 sub	 rsp, 32			; 00000020H
  0000a	48 8b fc	 mov	 rdi, rsp
  0000d	b9 08 00 00 00	 mov	 ecx, 8
  00012	b8 cc cc cc cc	 mov	 eax, -858993460		; ccccccccH
  00017	f3 ab		 rep stosd
  00019	48 8b 4c 24 30	 mov	 rcx, QWORD PTR [rsp+48]

; 528  : 	if	(ctns->p != -1)

  0001e	48 8b 44 24 30	 mov	 rax, QWORD PTR ctns$[rsp]
  00023	83 b8 20 05 00
	00 ff		 cmp	 DWORD PTR [rax+1312], -1
  0002a	74 0f		 je	 SHORT $LN2@reset

; 529  : 	{
; 530  : 		ctns->p									= 0;

  0002c	48 8b 44 24 30	 mov	 rax, QWORD PTR ctns$[rsp]
  00031	c7 80 20 05 00
	00 00 00 00 00	 mov	 DWORD PTR [rax+1312], 0
$LN2@reset:

; 531  : 	}
; 532  : 	ctns->tnstream->istream->lastMarker		= 0;

  0003b	48 8b 44 24 30	 mov	 rax, QWORD PTR ctns$[rsp]
  00040	48 8b 40 08	 mov	 rax, QWORD PTR [rax+8]
  00044	48 8b 40 08	 mov	 rax, QWORD PTR [rax+8]
  00048	48 c7 40 18 00
	00 00 00	 mov	 QWORD PTR [rax+24], 0

; 533  : 
; 534  : 
; 535  : 	// Free and reset the node stack only if this is not
; 536  : 	// a rewriter, which is going to reuse the originating
; 537  : 	// node streams node stack
; 538  : 	//
; 539  : 	if  (ctns->isRewriter != ANTLR3_TRUE)

  00050	48 8b 44 24 30	 mov	 rax, QWORD PTR ctns$[rsp]
  00055	0f b6 80 e8 05
	00 00		 movzx	 eax, BYTE PTR [rax+1512]
  0005c	83 f8 01	 cmp	 eax, 1
  0005f	74 40		 je	 SHORT $LN3@reset

; 540  :     {
; 541  : 		if	(ctns->nodeStack != NULL)

  00061	48 8b 44 24 30	 mov	 rax, QWORD PTR ctns$[rsp]
  00066	48 83 b8 18 05
	00 00 00	 cmp	 QWORD PTR [rax+1304], 0
  0006e	74 31		 je	 SHORT $LN4@reset

; 542  : 		{
; 543  : 			ctns->nodeStack->free(ctns->nodeStack);

  00070	48 8b 44 24 30	 mov	 rax, QWORD PTR ctns$[rsp]
  00075	48 8b 80 18 05
	00 00		 mov	 rax, QWORD PTR [rax+1304]
  0007c	48 8b 4c 24 30	 mov	 rcx, QWORD PTR ctns$[rsp]
  00081	48 8b 89 18 05
	00 00		 mov	 rcx, QWORD PTR [rcx+1304]
  00088	ff 50 10	 call	 QWORD PTR [rax+16]

; 544  : 			ctns->nodeStack = antlr3StackNew(INITIAL_CALL_STACK_SIZE);

  0008b	b9 0a 00 00 00	 mov	 ecx, 10
  00090	e8 00 00 00 00	 call	 antlr3StackNew
  00095	48 8b 4c 24 30	 mov	 rcx, QWORD PTR ctns$[rsp]
  0009a	48 89 81 18 05
	00 00		 mov	 QWORD PTR [rcx+1304], rax
$LN4@reset:
$LN3@reset:

; 545  : 		}
; 546  : 	}
; 547  : }

  000a1	48 83 c4 20	 add	 rsp, 32			; 00000020H
  000a5	5f		 pop	 rdi
  000a6	c3		 ret	 0
reset	ENDP
_TEXT	ENDS
; Function compile flags: /Odtp /RTCsu
; File c:\oss\third_party\antlr\libantlr3c-3.4\src\antlr3commontreenodestream.c
;	COMDAT newUpNode
_TEXT	SEGMENT
uNode$ = 32
token$ = 40
ctns$ = 64
newUpNode PROC						; COMDAT

; 905  : {

  00000	48 89 4c 24 08	 mov	 QWORD PTR [rsp+8], rcx
  00005	57		 push	 rdi
  00006	48 83 ec 30	 sub	 rsp, 48			; 00000030H
  0000a	48 8b fc	 mov	 rdi, rsp
  0000d	b9 0c 00 00 00	 mov	 ecx, 12
  00012	b8 cc cc cc cc	 mov	 eax, -858993460		; ccccccccH
  00017	f3 ab		 rep stosd
  00019	48 8b 4c 24 40	 mov	 rcx, QWORD PTR [rsp+64]

; 906  :     pANTLR3_COMMON_TREE	    uNode;
; 907  :     pANTLR3_COMMON_TOKEN    token;
; 908  : 
; 909  :     token					= antlr3CommonTokenNew(ANTLR3_TOKEN_UP);

  0001e	b9 03 00 00 00	 mov	 ecx, 3
  00023	e8 00 00 00 00	 call	 antlr3CommonTokenNew
  00028	48 89 44 24 28	 mov	 QWORD PTR token$[rsp], rax

; 910  : 	token->textState		= ANTLR3_TEXT_CHARP;

  0002d	48 8b 44 24 28	 mov	 rax, QWORD PTR token$[rsp]
  00032	c7 40 48 01 00
	00 00		 mov	 DWORD PTR [rax+72], 1

; 911  : 	token->tokText.chars	= (pANTLR3_UCHAR)"UP";

  00039	48 8b 44 24 28	 mov	 rax, QWORD PTR token$[rsp]
  0003e	48 8d 0d 00 00
	00 00		 lea	 rcx, OFFSET FLAT:??_C@_02NAHCJHOC@UP?$AA@
  00045	48 89 48 50	 mov	 QWORD PTR [rax+80], rcx

; 912  :     uNode					= antlr3CommonTreeNewFromToken(token);

  00049	48 8b 4c 24 28	 mov	 rcx, QWORD PTR token$[rsp]
  0004e	e8 00 00 00 00	 call	 antlr3CommonTreeNewFromToken
  00053	48 89 44 24 20	 mov	 QWORD PTR uNode$[rsp], rax

; 913  : 
; 914  :     return  &(uNode->baseTree);

  00058	48 8b 44 24 20	 mov	 rax, QWORD PTR uNode$[rsp]
  0005d	48 83 c0 38	 add	 rax, 56			; 00000038H

; 915  : }

  00061	48 83 c4 30	 add	 rsp, 48			; 00000030H
  00065	5f		 pop	 rdi
  00066	c3		 ret	 0
newUpNode ENDP
_TEXT	ENDS
; Function compile flags: /Odtp /RTCsu
; File c:\oss\third_party\antlr\libantlr3c-3.4\src\antlr3commontreenodestream.c
;	COMDAT newDownNode
_TEXT	SEGMENT
dNode$ = 32
token$ = 40
ctns$ = 64
newDownNode PROC					; COMDAT

; 891  : {

  00000	48 89 4c 24 08	 mov	 QWORD PTR [rsp+8], rcx
  00005	57		 push	 rdi
  00006	48 83 ec 30	 sub	 rsp, 48			; 00000030H
  0000a	48 8b fc	 mov	 rdi, rsp
  0000d	b9 0c 00 00 00	 mov	 ecx, 12
  00012	b8 cc cc cc cc	 mov	 eax, -858993460		; ccccccccH
  00017	f3 ab		 rep stosd
  00019	48 8b 4c 24 40	 mov	 rcx, QWORD PTR [rsp+64]

; 892  :     pANTLR3_COMMON_TREE	    dNode;
; 893  :     pANTLR3_COMMON_TOKEN    token;
; 894  : 
; 895  :     token					= antlr3CommonTokenNew(ANTLR3_TOKEN_DOWN);

  0001e	b9 02 00 00 00	 mov	 ecx, 2
  00023	e8 00 00 00 00	 call	 antlr3CommonTokenNew
  00028	48 89 44 24 28	 mov	 QWORD PTR token$[rsp], rax

; 896  : 	token->textState		= ANTLR3_TEXT_CHARP;

  0002d	48 8b 44 24 28	 mov	 rax, QWORD PTR token$[rsp]
  00032	c7 40 48 01 00
	00 00		 mov	 DWORD PTR [rax+72], 1

; 897  : 	token->tokText.chars	= (pANTLR3_UCHAR)"DOWN";

  00039	48 8b 44 24 28	 mov	 rax, QWORD PTR token$[rsp]
  0003e	48 8d 0d 00 00
	00 00		 lea	 rcx, OFFSET FLAT:??_C@_04FANAOELO@DOWN?$AA@
  00045	48 89 48 50	 mov	 QWORD PTR [rax+80], rcx

; 898  :     dNode					= antlr3CommonTreeNewFromToken(token);

  00049	48 8b 4c 24 28	 mov	 rcx, QWORD PTR token$[rsp]
  0004e	e8 00 00 00 00	 call	 antlr3CommonTreeNewFromToken
  00053	48 89 44 24 20	 mov	 QWORD PTR dNode$[rsp], rax

; 899  : 
; 900  :     return  &(dNode->baseTree);

  00058	48 8b 44 24 20	 mov	 rax, QWORD PTR dNode$[rsp]
  0005d	48 83 c0 38	 add	 rax, 56			; 00000038H

; 901  : }

  00061	48 83 c4 30	 add	 rsp, 48			; 00000030H
  00065	5f		 pop	 rdi
  00066	c3		 ret	 0
newDownNode ENDP
_TEXT	ENDS
; Function compile flags: /Odtp /RTCsu
; File c:\oss\third_party\antlr\libantlr3c-3.4\src\antlr3commontreenodestream.c
;	COMDAT hasUniqueNavigationNodes
_TEXT	SEGMENT
ctns$ = 16
hasUniqueNavigationNodes PROC				; COMDAT

; 795  : {

  00000	48 89 4c 24 08	 mov	 QWORD PTR [rsp+8], rcx
  00005	57		 push	 rdi

; 796  :     return  ctns->uniqueNavigationNodes;

  00006	48 8b 44 24 10	 mov	 rax, QWORD PTR ctns$[rsp]
  0000b	0f b6 80 00 05
	00 00		 movzx	 eax, BYTE PTR [rax+1280]

; 797  : }

  00012	5f		 pop	 rdi
  00013	c3		 ret	 0
hasUniqueNavigationNodes ENDP
_TEXT	ENDS
; Function compile flags: /Odtp /RTCsu
; File c:\oss\third_party\antlr\libantlr3c-3.4\src\antlr3commontreenodestream.c
;	COMDAT addNavigationNode
_TEXT	SEGMENT
node$ = 32
ctns$ = 64
ttype$ = 72
addNavigationNode PROC					; COMDAT

; 753  : {

  00000	89 54 24 10	 mov	 DWORD PTR [rsp+16], edx
  00004	48 89 4c 24 08	 mov	 QWORD PTR [rsp+8], rcx
  00009	57		 push	 rdi
  0000a	48 83 ec 30	 sub	 rsp, 48			; 00000030H
  0000e	48 8b fc	 mov	 rdi, rsp
  00011	b9 0c 00 00 00	 mov	 ecx, 12
  00016	b8 cc cc cc cc	 mov	 eax, -858993460		; ccccccccH
  0001b	f3 ab		 rep stosd
  0001d	48 8b 4c 24 40	 mov	 rcx, QWORD PTR [rsp+64]

; 754  : 	pANTLR3_BASE_TREE	    node;
; 755  : 
; 756  : 	node = NULL;

  00022	48 c7 44 24 20
	00 00 00 00	 mov	 QWORD PTR node$[rsp], 0

; 757  : 
; 758  : 	if	(ttype == ANTLR3_TOKEN_DOWN)

  0002b	83 7c 24 48 02	 cmp	 DWORD PTR ttype$[rsp], 2
  00030	75 3f		 jne	 SHORT $LN2@addNavigat

; 759  : 	{
; 760  : 		if  (ctns->hasUniqueNavigationNodes(ctns) == ANTLR3_TRUE)

  00032	48 8b 4c 24 40	 mov	 rcx, QWORD PTR ctns$[rsp]
  00037	48 8b 44 24 40	 mov	 rax, QWORD PTR ctns$[rsp]
  0003c	ff 90 b8 05 00
	00		 call	 QWORD PTR [rax+1464]
  00042	0f b6 c0	 movzx	 eax, al
  00045	83 f8 01	 cmp	 eax, 1
  00048	75 17		 jne	 SHORT $LN4@addNavigat

; 761  : 		{
; 762  : 			node    = ctns->newDownNode(ctns);

  0004a	48 8b 4c 24 40	 mov	 rcx, QWORD PTR ctns$[rsp]
  0004f	48 8b 44 24 40	 mov	 rax, QWORD PTR ctns$[rsp]
  00054	ff 90 a0 05 00
	00		 call	 QWORD PTR [rax+1440]
  0005a	48 89 44 24 20	 mov	 QWORD PTR node$[rsp], rax

; 763  : 		}

  0005f	eb 0e		 jmp	 SHORT $LN5@addNavigat
$LN4@addNavigat:

; 764  : 		else
; 765  : 		{
; 766  : 			node    = &(ctns->DOWN.baseTree);

  00061	48 8b 44 24 40	 mov	 rax, QWORD PTR ctns$[rsp]
  00066	48 83 c0 50	 add	 rax, 80			; 00000050H
  0006a	48 89 44 24 20	 mov	 QWORD PTR node$[rsp], rax
$LN5@addNavigat:

; 767  : 		}
; 768  : 	}

  0006f	eb 3f		 jmp	 SHORT $LN3@addNavigat
$LN2@addNavigat:

; 769  : 	else
; 770  : 	{
; 771  : 		if  (ctns->hasUniqueNavigationNodes(ctns) == ANTLR3_TRUE)

  00071	48 8b 4c 24 40	 mov	 rcx, QWORD PTR ctns$[rsp]
  00076	48 8b 44 24 40	 mov	 rax, QWORD PTR ctns$[rsp]
  0007b	ff 90 b8 05 00
	00		 call	 QWORD PTR [rax+1464]
  00081	0f b6 c0	 movzx	 eax, al
  00084	83 f8 01	 cmp	 eax, 1
  00087	75 17		 jne	 SHORT $LN6@addNavigat

; 772  : 		{
; 773  : 			node    = ctns->newUpNode(ctns);

  00089	48 8b 4c 24 40	 mov	 rcx, QWORD PTR ctns$[rsp]
  0008e	48 8b 44 24 40	 mov	 rax, QWORD PTR ctns$[rsp]
  00093	ff 90 a8 05 00
	00		 call	 QWORD PTR [rax+1448]
  00099	48 89 44 24 20	 mov	 QWORD PTR node$[rsp], rax

; 774  : 		}

  0009e	eb 10		 jmp	 SHORT $LN7@addNavigat
$LN6@addNavigat:

; 775  : 		else
; 776  : 		{
; 777  : 			node    = &(ctns->UP.baseTree);

  000a0	48 8b 44 24 40	 mov	 rax, QWORD PTR ctns$[rsp]
  000a5	48 05 88 01 00
	00		 add	 rax, 392		; 00000188H
  000ab	48 89 44 24 20	 mov	 QWORD PTR node$[rsp], rax
$LN7@addNavigat:
$LN3@addNavigat:

; 778  : 		}
; 779  : 	}
; 780  : 
; 781  : 	// Now add the node we decided upon.
; 782  : 	//
; 783  : 	ctns->nodes->add(ctns->nodes, node, NULL);

  000b0	48 8b 44 24 40	 mov	 rax, QWORD PTR ctns$[rsp]
  000b5	48 8b 80 f8 04
	00 00		 mov	 rax, QWORD PTR [rax+1272]
  000bc	45 33 c0	 xor	 r8d, r8d
  000bf	48 8b 54 24 20	 mov	 rdx, QWORD PTR node$[rsp]
  000c4	48 8b 4c 24 40	 mov	 rcx, QWORD PTR ctns$[rsp]
  000c9	48 8b 89 f8 04
	00 00		 mov	 rcx, QWORD PTR [rcx+1272]
  000d0	ff 90 48 01 00
	00		 call	 QWORD PTR [rax+328]

; 784  : }

  000d6	48 83 c4 30	 add	 rsp, 48			; 00000030H
  000da	5f		 pop	 rdi
  000db	c3		 ret	 0
addNavigationNode ENDP
_TEXT	ENDS
; Function compile flags: /Odtp /RTCsu
; File c:\oss\third_party\antlr\libantlr3c-3.4\src\antlr3commontreenodestream.c
;	COMDAT antlr3TreeNodeStreamNew
_TEXT	SEGMENT
stream$ = 32
antlr3TreeNodeStreamNew PROC				; COMDAT

; 89   : {

$LN4:
  00000	40 57		 push	 rdi
  00002	48 83 ec 30	 sub	 rsp, 48			; 00000030H
  00006	48 8b fc	 mov	 rdi, rsp
  00009	b9 0c 00 00 00	 mov	 ecx, 12
  0000e	b8 cc cc cc cc	 mov	 eax, -858993460		; ccccccccH
  00013	f3 ab		 rep stosd

; 90   :     pANTLR3_TREE_NODE_STREAM stream;
; 91   : 
; 92   :     // Memory for the interface structure
; 93   :     //
; 94   :     stream  = (pANTLR3_TREE_NODE_STREAM) ANTLR3_CALLOC(1, sizeof(ANTLR3_TREE_NODE_STREAM));

  00015	ba 60 00 00 00	 mov	 edx, 96			; 00000060H
  0001a	b9 01 00 00 00	 mov	 ecx, 1
  0001f	ff 15 00 00 00
	00		 call	 QWORD PTR __imp_calloc
  00025	48 89 44 24 20	 mov	 QWORD PTR stream$[rsp], rax

; 95   : 
; 96   :     if	(stream == NULL)

  0002a	48 83 7c 24 20
	00		 cmp	 QWORD PTR stream$[rsp], 0
  00030	75 04		 jne	 SHORT $LN2@antlr3Tree

; 97   :     {
; 98   : 		return	NULL;

  00032	33 c0		 xor	 eax, eax
  00034	eb 25		 jmp	 SHORT $LN1@antlr3Tree
$LN2@antlr3Tree:

; 99   :     }
; 100  : 
; 101  :     // Install basic API 
; 102  :     //
; 103  : 	stream->replaceChildren = replaceChildren;

  00036	48 8b 44 24 20	 mov	 rax, QWORD PTR stream$[rsp]
  0003b	48 8d 0d 00 00
	00 00		 lea	 rcx, OFFSET FLAT:replaceChildren
  00042	48 89 48 58	 mov	 QWORD PTR [rax+88], rcx

; 104  :     stream->free			= antlr3TreeNodeStreamFree;

  00046	48 8b 44 24 20	 mov	 rax, QWORD PTR stream$[rsp]
  0004b	48 8d 0d 00 00
	00 00		 lea	 rcx, OFFSET FLAT:antlr3TreeNodeStreamFree
  00052	48 89 48 48	 mov	 QWORD PTR [rax+72], rcx

; 105  :     
; 106  :     return stream;

  00056	48 8b 44 24 20	 mov	 rax, QWORD PTR stream$[rsp]
$LN1@antlr3Tree:

; 107  : }

  0005b	48 83 c4 30	 add	 rsp, 48			; 00000030H
  0005f	5f		 pop	 rdi
  00060	c3		 ret	 0
antlr3TreeNodeStreamNew ENDP
_TEXT	ENDS
; Function compile flags: /Odtp /RTCsu
; File c:\oss\third_party\antlr\libantlr3c-3.4\src\antlr3commontreenodestream.c
;	COMDAT antlr3CommonTreeNodeStreamNewStream
_TEXT	SEGMENT
stream$ = 32
inStream$ = 64
antlr3CommonTreeNodeStreamNewStream PROC		; COMDAT

; 133  : {

$LN6:
  00000	48 89 4c 24 08	 mov	 QWORD PTR [rsp+8], rcx
  00005	57		 push	 rdi
  00006	48 83 ec 30	 sub	 rsp, 48			; 00000030H
  0000a	48 8b fc	 mov	 rdi, rsp
  0000d	b9 0c 00 00 00	 mov	 ecx, 12
  00012	b8 cc cc cc cc	 mov	 eax, -858993460		; ccccccccH
  00017	f3 ab		 rep stosd
  00019	48 8b 4c 24 40	 mov	 rcx, QWORD PTR [rsp+64]

; 134  : 	pANTLR3_COMMON_TREE_NODE_STREAM stream;
; 135  : 
; 136  : 	// Memory for the interface structure
; 137  : 	//
; 138  : 	stream  = (pANTLR3_COMMON_TREE_NODE_STREAM) ANTLR3_CALLOC(1, sizeof(ANTLR3_COMMON_TREE_NODE_STREAM));

  0001e	ba f0 05 00 00	 mov	 edx, 1520		; 000005f0H
  00023	b9 01 00 00 00	 mov	 ecx, 1
  00028	ff 15 00 00 00
	00		 call	 QWORD PTR __imp_calloc
  0002e	48 89 44 24 20	 mov	 QWORD PTR stream$[rsp], rax

; 139  : 
; 140  : 	if	(stream == NULL)

  00033	48 83 7c 24 20
	00		 cmp	 QWORD PTR stream$[rsp], 0
  00039	75 07		 jne	 SHORT $LN2@antlr3Comm

; 141  : 	{
; 142  : 		return	NULL;

  0003b	33 c0		 xor	 eax, eax
  0003d	e9 9d 04 00 00	 jmp	 $LN1@antlr3Comm
$LN2@antlr3Comm:

; 143  : 	}
; 144  : 
; 145  : 	// Copy in all the reusable parts of the originating stream and create new
; 146  : 	// pieces where necessary.
; 147  : 	//
; 148  : 
; 149  : 	// String factory for tree walker
; 150  : 	//
; 151  : 	stream->stringFactory		= inStream->stringFactory;

  00042	48 8b 44 24 20	 mov	 rax, QWORD PTR stream$[rsp]
  00047	48 8b 4c 24 40	 mov	 rcx, QWORD PTR inStream$[rsp]
  0004c	48 8b 49 10	 mov	 rcx, QWORD PTR [rcx+16]
  00050	48 89 48 10	 mov	 QWORD PTR [rax+16], rcx

; 152  : 
; 153  : 	// Create an adaptor for the common tree node stream
; 154  : 	//
; 155  : 	stream->adaptor				= inStream->adaptor;

  00054	48 8b 44 24 20	 mov	 rax, QWORD PTR stream$[rsp]
  00059	48 8b 4c 24 40	 mov	 rcx, QWORD PTR inStream$[rsp]
  0005e	48 8b 89 10 05
	00 00		 mov	 rcx, QWORD PTR [rcx+1296]
  00065	48 89 88 10 05
	00 00		 mov	 QWORD PTR [rax+1296], rcx

; 156  : 
; 157  : 	// Create space for the tree node stream interface
; 158  : 	//
; 159  : 	stream->tnstream	    = antlr3TreeNodeStreamNew();

  0006c	e8 00 00 00 00	 call	 antlr3TreeNodeStreamNew
  00071	48 8b 4c 24 20	 mov	 rcx, QWORD PTR stream$[rsp]
  00076	48 89 41 08	 mov	 QWORD PTR [rcx+8], rax

; 160  : 
; 161  : 	if	(stream->tnstream == NULL)

  0007a	48 8b 44 24 20	 mov	 rax, QWORD PTR stream$[rsp]
  0007f	48 83 78 08 00	 cmp	 QWORD PTR [rax+8], 0
  00084	75 17		 jne	 SHORT $LN3@antlr3Comm

; 162  : 	{
; 163  : 		stream->free				(stream);

  00086	48 8b 4c 24 20	 mov	 rcx, QWORD PTR stream$[rsp]
  0008b	48 8b 44 24 20	 mov	 rax, QWORD PTR stream$[rsp]
  00090	ff 90 e0 05 00
	00		 call	 QWORD PTR [rax+1504]

; 164  : 
; 165  : 		return	NULL;

  00096	33 c0		 xor	 eax, eax
  00098	e9 42 04 00 00	 jmp	 $LN1@antlr3Comm
$LN3@antlr3Comm:

; 166  : 	}
; 167  : 
; 168  : 	// Create space for the INT_STREAM interface
; 169  : 	//
; 170  : 	stream->tnstream->istream		    =  antlr3IntStreamNew();

  0009d	e8 00 00 00 00	 call	 antlr3IntStreamNew
  000a2	48 8b 4c 24 20	 mov	 rcx, QWORD PTR stream$[rsp]
  000a7	48 8b 49 08	 mov	 rcx, QWORD PTR [rcx+8]
  000ab	48 89 41 08	 mov	 QWORD PTR [rcx+8], rax

; 171  : 
; 172  : 	if	(stream->tnstream->istream == NULL)

  000af	48 8b 44 24 20	 mov	 rax, QWORD PTR stream$[rsp]
  000b4	48 8b 40 08	 mov	 rax, QWORD PTR [rax+8]
  000b8	48 83 78 08 00	 cmp	 QWORD PTR [rax+8], 0
  000bd	75 2c		 jne	 SHORT $LN4@antlr3Comm

; 173  : 	{
; 174  : 		stream->tnstream->free		(stream->tnstream);

  000bf	48 8b 44 24 20	 mov	 rax, QWORD PTR stream$[rsp]
  000c4	48 8b 40 08	 mov	 rax, QWORD PTR [rax+8]
  000c8	48 8b 4c 24 20	 mov	 rcx, QWORD PTR stream$[rsp]
  000cd	48 8b 49 08	 mov	 rcx, QWORD PTR [rcx+8]
  000d1	ff 50 48	 call	 QWORD PTR [rax+72]

; 175  : 		stream->free				(stream);

  000d4	48 8b 4c 24 20	 mov	 rcx, QWORD PTR stream$[rsp]
  000d9	48 8b 44 24 20	 mov	 rax, QWORD PTR stream$[rsp]
  000de	ff 90 e0 05 00
	00		 call	 QWORD PTR [rax+1504]

; 176  : 
; 177  : 		return	NULL;

  000e4	33 c0		 xor	 eax, eax
  000e6	e9 f4 03 00 00	 jmp	 $LN1@antlr3Comm
$LN4@antlr3Comm:

; 178  : 	}
; 179  : 
; 180  : 	// Install the common tree node stream API
; 181  : 	//
; 182  : 	stream->addNavigationNode		    =  addNavigationNode;

  000eb	48 8b 44 24 20	 mov	 rax, QWORD PTR stream$[rsp]
  000f0	48 8d 0d 00 00
	00 00		 lea	 rcx, OFFSET FLAT:addNavigationNode
  000f7	48 89 88 98 05
	00 00		 mov	 QWORD PTR [rax+1432], rcx

; 183  : 	stream->hasUniqueNavigationNodes    =  hasUniqueNavigationNodes;

  000fe	48 8b 44 24 20	 mov	 rax, QWORD PTR stream$[rsp]
  00103	48 8d 0d 00 00
	00 00		 lea	 rcx, OFFSET FLAT:hasUniqueNavigationNodes
  0010a	48 89 88 b8 05
	00 00		 mov	 QWORD PTR [rax+1464], rcx

; 184  : 	stream->newDownNode					=  newDownNode;

  00111	48 8b 44 24 20	 mov	 rax, QWORD PTR stream$[rsp]
  00116	48 8d 0d 00 00
	00 00		 lea	 rcx, OFFSET FLAT:newDownNode
  0011d	48 89 88 a0 05
	00 00		 mov	 QWORD PTR [rax+1440], rcx

; 185  : 	stream->newUpNode					=  newUpNode;

  00124	48 8b 44 24 20	 mov	 rax, QWORD PTR stream$[rsp]
  00129	48 8d 0d 00 00
	00 00		 lea	 rcx, OFFSET FLAT:newUpNode
  00130	48 89 88 a8 05
	00 00		 mov	 QWORD PTR [rax+1448], rcx

; 186  : 	stream->reset						=  reset;

  00137	48 8b 44 24 20	 mov	 rax, QWORD PTR stream$[rsp]
  0013c	48 8d 0d 00 00
	00 00		 lea	 rcx, OFFSET FLAT:reset
  00143	48 89 88 d8 05
	00 00		 mov	 QWORD PTR [rax+1496], rcx

; 187  : 	stream->push						=  push;

  0014a	48 8b 44 24 20	 mov	 rax, QWORD PTR stream$[rsp]
  0014f	48 8d 0d 00 00
	00 00		 lea	 rcx, OFFSET FLAT:push
  00156	48 89 88 c8 05
	00 00		 mov	 QWORD PTR [rax+1480], rcx

; 188  : 	stream->pop							=  pop;

  0015d	48 8b 44 24 20	 mov	 rax, QWORD PTR stream$[rsp]
  00162	48 8d 0d 00 00
	00 00		 lea	 rcx, OFFSET FLAT:pop
  00169	48 89 88 d0 05
	00 00		 mov	 QWORD PTR [rax+1488], rcx

; 189  : 	stream->getLookaheadSize			=  getLookaheadSize;

  00170	48 8b 44 24 20	 mov	 rax, QWORD PTR stream$[rsp]
  00175	48 8d 0d 00 00
	00 00		 lea	 rcx, OFFSET FLAT:getLookaheadSize
  0017c	48 89 88 c0 05
	00 00		 mov	 QWORD PTR [rax+1472], rcx

; 190  : 
; 191  : 	stream->free			    =  antlr3CommonTreeNodeStreamFree;

  00183	48 8b 44 24 20	 mov	 rax, QWORD PTR stream$[rsp]
  00188	48 8d 0d 00 00
	00 00		 lea	 rcx, OFFSET FLAT:antlr3CommonTreeNodeStreamFree
  0018f	48 89 88 e0 05
	00 00		 mov	 QWORD PTR [rax+1504], rcx

; 192  : 
; 193  : 	// Install the tree node stream API
; 194  : 	//
; 195  : 	stream->tnstream->getTreeAdaptor			=  getTreeAdaptor;

  00196	48 8b 44 24 20	 mov	 rax, QWORD PTR stream$[rsp]
  0019b	48 8b 40 08	 mov	 rax, QWORD PTR [rax+8]
  0019f	48 8d 0d 00 00
	00 00		 lea	 rcx, OFFSET FLAT:getTreeAdaptor
  001a6	48 89 48 20	 mov	 QWORD PTR [rax+32], rcx

; 196  : 	stream->tnstream->getTreeSource				=  getTreeSource;

  001aa	48 8b 44 24 20	 mov	 rax, QWORD PTR stream$[rsp]
  001af	48 8b 40 08	 mov	 rax, QWORD PTR [rax+8]
  001b3	48 8d 0d 00 00
	00 00		 lea	 rcx, OFFSET FLAT:getTreeSource
  001ba	48 89 48 18	 mov	 QWORD PTR [rax+24], rcx

; 197  : 	stream->tnstream->_LT						=  _LT;

  001be	48 8b 44 24 20	 mov	 rax, QWORD PTR stream$[rsp]
  001c3	48 8b 40 08	 mov	 rax, QWORD PTR [rax+8]
  001c7	48 8d 0d 00 00
	00 00		 lea	 rcx, OFFSET FLAT:_LT
  001ce	48 89 48 10	 mov	 QWORD PTR [rax+16], rcx

; 198  : 	stream->tnstream->setUniqueNavigationNodes	=  setUniqueNavigationNodes;

  001d2	48 8b 44 24 20	 mov	 rax, QWORD PTR stream$[rsp]
  001d7	48 8b 40 08	 mov	 rax, QWORD PTR [rax+8]
  001db	48 8d 0d 00 00
	00 00		 lea	 rcx, OFFSET FLAT:setUniqueNavigationNodes
  001e2	48 89 48 28	 mov	 QWORD PTR [rax+40], rcx

; 199  : 	stream->tnstream->toString					=  toString;

  001e6	48 8b 44 24 20	 mov	 rax, QWORD PTR stream$[rsp]
  001eb	48 8b 40 08	 mov	 rax, QWORD PTR [rax+8]
  001ef	48 8d 0d 00 00
	00 00		 lea	 rcx, OFFSET FLAT:toString
  001f6	48 89 48 30	 mov	 QWORD PTR [rax+48], rcx

; 200  : 	stream->tnstream->toStringSS				=  toStringSS;

  001fa	48 8b 44 24 20	 mov	 rax, QWORD PTR stream$[rsp]
  001ff	48 8b 40 08	 mov	 rax, QWORD PTR [rax+8]
  00203	48 8d 0d 00 00
	00 00		 lea	 rcx, OFFSET FLAT:toStringSS
  0020a	48 89 48 38	 mov	 QWORD PTR [rax+56], rcx

; 201  : 	stream->tnstream->toStringWork				=  toStringWork;

  0020e	48 8b 44 24 20	 mov	 rax, QWORD PTR stream$[rsp]
  00213	48 8b 40 08	 mov	 rax, QWORD PTR [rax+8]
  00217	48 8d 0d 00 00
	00 00		 lea	 rcx, OFFSET FLAT:toStringWork
  0021e	48 89 48 40	 mov	 QWORD PTR [rax+64], rcx

; 202  : 	stream->tnstream->get						=  get;

  00222	48 8b 44 24 20	 mov	 rax, QWORD PTR stream$[rsp]
  00227	48 8b 40 08	 mov	 rax, QWORD PTR [rax+8]
  0022b	48 8d 0d 00 00
	00 00		 lea	 rcx, OFFSET FLAT:get
  00232	48 89 48 50	 mov	 QWORD PTR [rax+80], rcx

; 203  : 
; 204  : 	// Install INT_STREAM interface
; 205  : 	//
; 206  : 	stream->tnstream->istream->consume	    =  consume;

  00236	48 8b 44 24 20	 mov	 rax, QWORD PTR stream$[rsp]
  0023b	48 8b 40 08	 mov	 rax, QWORD PTR [rax+8]
  0023f	48 8b 40 08	 mov	 rax, QWORD PTR [rax+8]
  00243	48 8d 0d 00 00
	00 00		 lea	 rcx, OFFSET FLAT:consume
  0024a	48 89 48 28	 mov	 QWORD PTR [rax+40], rcx

; 207  : 	stream->tnstream->istream->index	    =  tindex;

  0024e	48 8b 44 24 20	 mov	 rax, QWORD PTR stream$[rsp]
  00253	48 8b 40 08	 mov	 rax, QWORD PTR [rax+8]
  00257	48 8b 40 08	 mov	 rax, QWORD PTR [rax+8]
  0025b	48 8d 0d 00 00
	00 00		 lea	 rcx, OFFSET FLAT:tindex
  00262	48 89 48 40	 mov	 QWORD PTR [rax+64], rcx

; 208  : 	stream->tnstream->istream->_LA			=  _LA;

  00266	48 8b 44 24 20	 mov	 rax, QWORD PTR stream$[rsp]
  0026b	48 8b 40 08	 mov	 rax, QWORD PTR [rax+8]
  0026f	48 8b 40 08	 mov	 rax, QWORD PTR [rax+8]
  00273	48 8d 0d 00 00
	00 00		 lea	 rcx, OFFSET FLAT:_LA
  0027a	48 89 48 30	 mov	 QWORD PTR [rax+48], rcx

; 209  : 	stream->tnstream->istream->mark			=  mark;

  0027e	48 8b 44 24 20	 mov	 rax, QWORD PTR stream$[rsp]
  00283	48 8b 40 08	 mov	 rax, QWORD PTR [rax+8]
  00287	48 8b 40 08	 mov	 rax, QWORD PTR [rax+8]
  0028b	48 8d 0d 00 00
	00 00		 lea	 rcx, OFFSET FLAT:mark
  00292	48 89 48 38	 mov	 QWORD PTR [rax+56], rcx

; 210  : 	stream->tnstream->istream->release	    =  release;

  00296	48 8b 44 24 20	 mov	 rax, QWORD PTR stream$[rsp]
  0029b	48 8b 40 08	 mov	 rax, QWORD PTR [rax+8]
  0029f	48 8b 40 08	 mov	 rax, QWORD PTR [rax+8]
  002a3	48 8d 0d 00 00
	00 00		 lea	 rcx, OFFSET FLAT:release
  002aa	48 89 48 58	 mov	 QWORD PTR [rax+88], rcx

; 211  : 	stream->tnstream->istream->rewind	    =  rewindMark;

  002ae	48 8b 44 24 20	 mov	 rax, QWORD PTR stream$[rsp]
  002b3	48 8b 40 08	 mov	 rax, QWORD PTR [rax+8]
  002b7	48 8b 40 08	 mov	 rax, QWORD PTR [rax+8]
  002bb	48 8d 0d 00 00
	00 00		 lea	 rcx, OFFSET FLAT:rewindMark
  002c2	48 89 48 48	 mov	 QWORD PTR [rax+72], rcx

; 212  : 	stream->tnstream->istream->rewindLast   =  rewindLast;

  002c6	48 8b 44 24 20	 mov	 rax, QWORD PTR stream$[rsp]
  002cb	48 8b 40 08	 mov	 rax, QWORD PTR [rax+8]
  002cf	48 8b 40 08	 mov	 rax, QWORD PTR [rax+8]
  002d3	48 8d 0d 00 00
	00 00		 lea	 rcx, OFFSET FLAT:rewindLast
  002da	48 89 48 50	 mov	 QWORD PTR [rax+80], rcx

; 213  : 	stream->tnstream->istream->seek			=  seek;

  002de	48 8b 44 24 20	 mov	 rax, QWORD PTR stream$[rsp]
  002e3	48 8b 40 08	 mov	 rax, QWORD PTR [rax+8]
  002e7	48 8b 40 08	 mov	 rax, QWORD PTR [rax+8]
  002eb	48 8d 0d 00 00
	00 00		 lea	 rcx, OFFSET FLAT:seek
  002f2	48 89 48 60	 mov	 QWORD PTR [rax+96], rcx

; 214  : 	stream->tnstream->istream->size			=  size;

  002f6	48 8b 44 24 20	 mov	 rax, QWORD PTR stream$[rsp]
  002fb	48 8b 40 08	 mov	 rax, QWORD PTR [rax+8]
  002ff	48 8b 40 08	 mov	 rax, QWORD PTR [rax+8]
  00303	48 8d 0d 00 00
	00 00		 lea	 rcx, OFFSET FLAT:size
  0030a	48 89 48 68	 mov	 QWORD PTR [rax+104], rcx

; 215  : 
; 216  : 	// Initialize data elements of INT stream
; 217  : 	//
; 218  : 	stream->tnstream->istream->type			= ANTLR3_COMMONTREENODE;

  0030e	48 8b 44 24 20	 mov	 rax, QWORD PTR stream$[rsp]
  00313	48 8b 40 08	 mov	 rax, QWORD PTR [rax+8]
  00317	48 8b 40 08	 mov	 rax, QWORD PTR [rax+8]
  0031b	c7 00 04 00 00
	00		 mov	 DWORD PTR [rax], 4

; 219  : 	stream->tnstream->istream->super	    =  (stream->tnstream);

  00321	48 8b 44 24 20	 mov	 rax, QWORD PTR stream$[rsp]
  00326	48 8b 40 08	 mov	 rax, QWORD PTR [rax+8]
  0032a	48 8b 40 08	 mov	 rax, QWORD PTR [rax+8]
  0032e	48 8b 4c 24 20	 mov	 rcx, QWORD PTR stream$[rsp]
  00333	48 8b 49 08	 mov	 rcx, QWORD PTR [rcx+8]
  00337	48 89 48 10	 mov	 QWORD PTR [rax+16], rcx

; 220  : 
; 221  : 	// Initialize data elements of TREE stream
; 222  : 	//
; 223  : 	stream->tnstream->ctns =  stream;

  0033b	48 8b 44 24 20	 mov	 rax, QWORD PTR stream$[rsp]
  00340	48 8b 40 08	 mov	 rax, QWORD PTR [rax+8]
  00344	48 8b 4c 24 20	 mov	 rcx, QWORD PTR stream$[rsp]
  00349	48 89 08	 mov	 QWORD PTR [rax], rcx

; 224  : 
; 225  : 	// Initialize data elements of the COMMON TREE NODE stream
; 226  : 	//
; 227  : 	stream->super					= NULL;

  0034c	48 8b 44 24 20	 mov	 rax, QWORD PTR stream$[rsp]
  00351	48 c7 00 00 00
	00 00		 mov	 QWORD PTR [rax], 0

; 228  : 	stream->uniqueNavigationNodes	= ANTLR3_FALSE;

  00358	48 8b 44 24 20	 mov	 rax, QWORD PTR stream$[rsp]
  0035d	c6 80 00 05 00
	00 00		 mov	 BYTE PTR [rax+1280], 0

; 229  : 	stream->markers					= NULL;

  00364	48 8b 44 24 20	 mov	 rax, QWORD PTR stream$[rsp]
  00369	48 c7 80 60 05
	00 00 00 00 00
	00		 mov	 QWORD PTR [rax+1376], 0

; 230  : 	stream->nodeStack				= inStream->nodeStack;

  00374	48 8b 44 24 20	 mov	 rax, QWORD PTR stream$[rsp]
  00379	48 8b 4c 24 40	 mov	 rcx, QWORD PTR inStream$[rsp]
  0037e	48 8b 89 18 05
	00 00		 mov	 rcx, QWORD PTR [rcx+1304]
  00385	48 89 88 18 05
	00 00		 mov	 QWORD PTR [rax+1304], rcx

; 231  : 
; 232  : 	// Create the node list map
; 233  : 	//
; 234  : 	stream->nodes	= antlr3VectorNew(DEFAULT_INITIAL_BUFFER_SIZE);

  0038c	b9 64 00 00 00	 mov	 ecx, 100		; 00000064H
  00391	e8 00 00 00 00	 call	 antlr3VectorNew
  00396	48 8b 4c 24 20	 mov	 rcx, QWORD PTR stream$[rsp]
  0039b	48 89 81 f8 04
	00 00		 mov	 QWORD PTR [rcx+1272], rax

; 235  : 	stream->p		= -1;

  003a2	48 8b 44 24 20	 mov	 rax, QWORD PTR stream$[rsp]
  003a7	c7 80 20 05 00
	00 ff ff ff ff	 mov	 DWORD PTR [rax+1312], -1

; 236  : 
; 237  : 	// Install the navigation nodes     
; 238  : 	//
; 239  : 	
; 240  : 	// Install the navigation nodes     
; 241  : 	//
; 242  : 	antlr3SetCTAPI(&(stream->UP));

  003b1	48 8b 44 24 20	 mov	 rax, QWORD PTR stream$[rsp]
  003b6	48 05 50 01 00
	00		 add	 rax, 336		; 00000150H
  003bc	48 8b c8	 mov	 rcx, rax
  003bf	e8 00 00 00 00	 call	 antlr3SetCTAPI

; 243  : 	antlr3SetCTAPI(&(stream->DOWN));

  003c4	48 8b 44 24 20	 mov	 rax, QWORD PTR stream$[rsp]
  003c9	48 83 c0 18	 add	 rax, 24
  003cd	48 8b c8	 mov	 rcx, rax
  003d0	e8 00 00 00 00	 call	 antlr3SetCTAPI

; 244  : 	antlr3SetCTAPI(&(stream->EOF_NODE));

  003d5	48 8b 44 24 20	 mov	 rax, QWORD PTR stream$[rsp]
  003da	48 05 88 02 00
	00		 add	 rax, 648		; 00000288H
  003e0	48 8b c8	 mov	 rcx, rax
  003e3	e8 00 00 00 00	 call	 antlr3SetCTAPI

; 245  : 	antlr3SetCTAPI(&(stream->INVALID_NODE));

  003e8	48 8b 44 24 20	 mov	 rax, QWORD PTR stream$[rsp]
  003ed	48 05 c0 03 00
	00		 add	 rax, 960		; 000003c0H
  003f3	48 8b c8	 mov	 rcx, rax
  003f6	e8 00 00 00 00	 call	 antlr3SetCTAPI

; 246  : 
; 247  : 	stream->UP.token						= inStream->UP.token;

  003fb	48 8b 44 24 20	 mov	 rax, QWORD PTR stream$[rsp]
  00400	48 8b 4c 24 40	 mov	 rcx, QWORD PTR inStream$[rsp]
  00405	48 8b 89 68 01
	00 00		 mov	 rcx, QWORD PTR [rcx+360]
  0040c	48 89 88 68 01
	00 00		 mov	 QWORD PTR [rax+360], rcx

; 248  : 	inStream->UP.token->strFactory			= stream->stringFactory;

  00413	48 8b 44 24 40	 mov	 rax, QWORD PTR inStream$[rsp]
  00418	48 8b 80 68 01
	00 00		 mov	 rax, QWORD PTR [rax+360]
  0041f	48 8b 4c 24 20	 mov	 rcx, QWORD PTR stream$[rsp]
  00424	48 8b 49 10	 mov	 rcx, QWORD PTR [rcx+16]
  00428	48 89 48 08	 mov	 QWORD PTR [rax+8], rcx

; 249  : 	stream->DOWN.token						= inStream->DOWN.token;

  0042c	48 8b 44 24 20	 mov	 rax, QWORD PTR stream$[rsp]
  00431	48 8b 4c 24 40	 mov	 rcx, QWORD PTR inStream$[rsp]
  00436	48 8b 49 30	 mov	 rcx, QWORD PTR [rcx+48]
  0043a	48 89 48 30	 mov	 QWORD PTR [rax+48], rcx

; 250  : 	inStream->DOWN.token->strFactory		= stream->stringFactory;

  0043e	48 8b 44 24 40	 mov	 rax, QWORD PTR inStream$[rsp]
  00443	48 8b 40 30	 mov	 rax, QWORD PTR [rax+48]
  00447	48 8b 4c 24 20	 mov	 rcx, QWORD PTR stream$[rsp]
  0044c	48 8b 49 10	 mov	 rcx, QWORD PTR [rcx+16]
  00450	48 89 48 08	 mov	 QWORD PTR [rax+8], rcx

; 251  : 	stream->EOF_NODE.token					= inStream->EOF_NODE.token;

  00454	48 8b 44 24 20	 mov	 rax, QWORD PTR stream$[rsp]
  00459	48 8b 4c 24 40	 mov	 rcx, QWORD PTR inStream$[rsp]
  0045e	48 8b 89 a0 02
	00 00		 mov	 rcx, QWORD PTR [rcx+672]
  00465	48 89 88 a0 02
	00 00		 mov	 QWORD PTR [rax+672], rcx

; 252  : 	inStream->EOF_NODE.token->strFactory	= stream->stringFactory;

  0046c	48 8b 44 24 40	 mov	 rax, QWORD PTR inStream$[rsp]
  00471	48 8b 80 a0 02
	00 00		 mov	 rax, QWORD PTR [rax+672]
  00478	48 8b 4c 24 20	 mov	 rcx, QWORD PTR stream$[rsp]
  0047d	48 8b 49 10	 mov	 rcx, QWORD PTR [rcx+16]
  00481	48 89 48 08	 mov	 QWORD PTR [rax+8], rcx

; 253  : 	stream->INVALID_NODE.token				= inStream->INVALID_NODE.token;

  00485	48 8b 44 24 20	 mov	 rax, QWORD PTR stream$[rsp]
  0048a	48 8b 4c 24 40	 mov	 rcx, QWORD PTR inStream$[rsp]
  0048f	48 8b 89 d8 03
	00 00		 mov	 rcx, QWORD PTR [rcx+984]
  00496	48 89 88 d8 03
	00 00		 mov	 QWORD PTR [rax+984], rcx

; 254  : 	inStream->INVALID_NODE.token->strFactory= stream->stringFactory;

  0049d	48 8b 44 24 40	 mov	 rax, QWORD PTR inStream$[rsp]
  004a2	48 8b 80 d8 03
	00 00		 mov	 rax, QWORD PTR [rax+984]
  004a9	48 8b 4c 24 20	 mov	 rcx, QWORD PTR stream$[rsp]
  004ae	48 8b 49 10	 mov	 rcx, QWORD PTR [rcx+16]
  004b2	48 89 48 08	 mov	 QWORD PTR [rax+8], rcx

; 255  : 
; 256  : 	// Reuse the root tree of the originating stream
; 257  : 	//
; 258  : 	stream->root		= inStream->root;

  004b6	48 8b 44 24 20	 mov	 rax, QWORD PTR stream$[rsp]
  004bb	48 8b 4c 24 40	 mov	 rcx, QWORD PTR inStream$[rsp]
  004c0	48 8b 89 08 05
	00 00		 mov	 rcx, QWORD PTR [rcx+1288]
  004c7	48 89 88 08 05
	00 00		 mov	 QWORD PTR [rax+1288], rcx

; 259  : 
; 260  : 	// Signal that this is a rewriting stream so we don't
; 261  : 	// free the originating tree. Anything that we rewrite or
; 262  : 	// duplicate here will be done through the adaptor or 
; 263  : 	// the original tree factory.
; 264  : 	//
; 265  : 	stream->isRewriter	= ANTLR3_TRUE;

  004ce	48 8b 44 24 20	 mov	 rax, QWORD PTR stream$[rsp]
  004d3	c6 80 e8 05 00
	00 01		 mov	 BYTE PTR [rax+1512], 1

; 266  : 	return stream;

  004da	48 8b 44 24 20	 mov	 rax, QWORD PTR stream$[rsp]
$LN1@antlr3Comm:

; 267  : }

  004df	48 83 c4 30	 add	 rsp, 48			; 00000030H
  004e3	5f		 pop	 rdi
  004e4	c3		 ret	 0
antlr3CommonTreeNodeStreamNewStream ENDP
_TEXT	ENDS
; Function compile flags: /Odtp /RTCsu
; File c:\oss\third_party\antlr\libantlr3c-3.4\src\antlr3commontreenodestream.c
;	COMDAT antlr3CommonTreeNodeStreamNew
_TEXT	SEGMENT
stream$ = 32
token$ = 40
strFactory$ = 64
hint$ = 72
antlr3CommonTreeNodeStreamNew PROC			; COMDAT

; 271  : {

$LN8:
  00000	89 54 24 10	 mov	 DWORD PTR [rsp+16], edx
  00004	48 89 4c 24 08	 mov	 QWORD PTR [rsp+8], rcx
  00009	57		 push	 rdi
  0000a	48 83 ec 30	 sub	 rsp, 48			; 00000030H
  0000e	48 8b fc	 mov	 rdi, rsp
  00011	b9 0c 00 00 00	 mov	 ecx, 12
  00016	b8 cc cc cc cc	 mov	 eax, -858993460		; ccccccccH
  0001b	f3 ab		 rep stosd
  0001d	48 8b 4c 24 40	 mov	 rcx, QWORD PTR [rsp+64]

; 272  : 	pANTLR3_COMMON_TREE_NODE_STREAM stream;
; 273  : 	pANTLR3_COMMON_TOKEN			token;
; 274  : 
; 275  : 	// Memory for the interface structure
; 276  : 	//
; 277  : 	stream  = (pANTLR3_COMMON_TREE_NODE_STREAM) ANTLR3_CALLOC(1, sizeof(ANTLR3_COMMON_TREE_NODE_STREAM));

  00022	ba f0 05 00 00	 mov	 edx, 1520		; 000005f0H
  00027	b9 01 00 00 00	 mov	 ecx, 1
  0002c	ff 15 00 00 00
	00		 call	 QWORD PTR __imp_calloc
  00032	48 89 44 24 20	 mov	 QWORD PTR stream$[rsp], rax

; 278  : 
; 279  : 	if	(stream == NULL)

  00037	48 83 7c 24 20
	00		 cmp	 QWORD PTR stream$[rsp], 0
  0003d	75 07		 jne	 SHORT $LN2@antlr3Comm

; 280  : 	{
; 281  : 		return	NULL;

  0003f	33 c0		 xor	 eax, eax
  00041	e9 35 05 00 00	 jmp	 $LN1@antlr3Comm
$LN2@antlr3Comm:

; 282  : 	}
; 283  : 
; 284  : 	// String factory for tree walker
; 285  : 	//
; 286  : 	stream->stringFactory		= strFactory;

  00046	48 8b 44 24 20	 mov	 rax, QWORD PTR stream$[rsp]
  0004b	48 8b 4c 24 40	 mov	 rcx, QWORD PTR strFactory$[rsp]
  00050	48 89 48 10	 mov	 QWORD PTR [rax+16], rcx

; 287  : 
; 288  : 	// Create an adaptor for the common tree node stream
; 289  : 	//
; 290  : 	stream->adaptor				= ANTLR3_TREE_ADAPTORNew(strFactory);

  00054	48 8b 4c 24 40	 mov	 rcx, QWORD PTR strFactory$[rsp]
  00059	e8 00 00 00 00	 call	 ANTLR3_TREE_ADAPTORNew
  0005e	48 8b 4c 24 20	 mov	 rcx, QWORD PTR stream$[rsp]
  00063	48 89 81 10 05
	00 00		 mov	 QWORD PTR [rcx+1296], rax

; 291  : 
; 292  : 	if	(stream->adaptor == NULL)

  0006a	48 8b 44 24 20	 mov	 rax, QWORD PTR stream$[rsp]
  0006f	48 83 b8 10 05
	00 00 00	 cmp	 QWORD PTR [rax+1296], 0
  00077	75 17		 jne	 SHORT $LN3@antlr3Comm

; 293  : 	{
; 294  : 		stream->free(stream);

  00079	48 8b 4c 24 20	 mov	 rcx, QWORD PTR stream$[rsp]
  0007e	48 8b 44 24 20	 mov	 rax, QWORD PTR stream$[rsp]
  00083	ff 90 e0 05 00
	00		 call	 QWORD PTR [rax+1504]

; 295  : 		return	NULL;

  00089	33 c0		 xor	 eax, eax
  0008b	e9 eb 04 00 00	 jmp	 $LN1@antlr3Comm
$LN3@antlr3Comm:

; 296  : 	}
; 297  : 
; 298  : 	// Create space for the tree node stream interface
; 299  : 	//
; 300  : 	stream->tnstream	    = antlr3TreeNodeStreamNew();

  00090	e8 00 00 00 00	 call	 antlr3TreeNodeStreamNew
  00095	48 8b 4c 24 20	 mov	 rcx, QWORD PTR stream$[rsp]
  0009a	48 89 41 08	 mov	 QWORD PTR [rcx+8], rax

; 301  : 
; 302  : 	if	(stream->tnstream == NULL)

  0009e	48 8b 44 24 20	 mov	 rax, QWORD PTR stream$[rsp]
  000a3	48 83 78 08 00	 cmp	 QWORD PTR [rax+8], 0
  000a8	75 35		 jne	 SHORT $LN4@antlr3Comm

; 303  : 	{
; 304  : 		stream->adaptor->free		(stream->adaptor);

  000aa	48 8b 44 24 20	 mov	 rax, QWORD PTR stream$[rsp]
  000af	48 8b 80 10 05
	00 00		 mov	 rax, QWORD PTR [rax+1296]
  000b6	48 8b 4c 24 20	 mov	 rcx, QWORD PTR stream$[rsp]
  000bb	48 8b 89 10 05
	00 00		 mov	 rcx, QWORD PTR [rcx+1296]
  000c2	ff 90 50 01 00
	00		 call	 QWORD PTR [rax+336]

; 305  : 		stream->free				(stream);

  000c8	48 8b 4c 24 20	 mov	 rcx, QWORD PTR stream$[rsp]
  000cd	48 8b 44 24 20	 mov	 rax, QWORD PTR stream$[rsp]
  000d2	ff 90 e0 05 00
	00		 call	 QWORD PTR [rax+1504]

; 306  : 
; 307  : 		return	NULL;

  000d8	33 c0		 xor	 eax, eax
  000da	e9 9c 04 00 00	 jmp	 $LN1@antlr3Comm
$LN4@antlr3Comm:

; 308  : 	}
; 309  : 
; 310  : 	// Create space for the INT_STREAM interface
; 311  : 	//
; 312  : 	stream->tnstream->istream		    =  antlr3IntStreamNew();

  000df	e8 00 00 00 00	 call	 antlr3IntStreamNew
  000e4	48 8b 4c 24 20	 mov	 rcx, QWORD PTR stream$[rsp]
  000e9	48 8b 49 08	 mov	 rcx, QWORD PTR [rcx+8]
  000ed	48 89 41 08	 mov	 QWORD PTR [rcx+8], rax

; 313  : 
; 314  : 	if	(stream->tnstream->istream == NULL)

  000f1	48 8b 44 24 20	 mov	 rax, QWORD PTR stream$[rsp]
  000f6	48 8b 40 08	 mov	 rax, QWORD PTR [rax+8]
  000fa	48 83 78 08 00	 cmp	 QWORD PTR [rax+8], 0
  000ff	75 4a		 jne	 SHORT $LN5@antlr3Comm

; 315  : 	{
; 316  : 		stream->adaptor->free		(stream->adaptor);

  00101	48 8b 44 24 20	 mov	 rax, QWORD PTR stream$[rsp]
  00106	48 8b 80 10 05
	00 00		 mov	 rax, QWORD PTR [rax+1296]
  0010d	48 8b 4c 24 20	 mov	 rcx, QWORD PTR stream$[rsp]
  00112	48 8b 89 10 05
	00 00		 mov	 rcx, QWORD PTR [rcx+1296]
  00119	ff 90 50 01 00
	00		 call	 QWORD PTR [rax+336]

; 317  : 		stream->tnstream->free		(stream->tnstream);

  0011f	48 8b 44 24 20	 mov	 rax, QWORD PTR stream$[rsp]
  00124	48 8b 40 08	 mov	 rax, QWORD PTR [rax+8]
  00128	48 8b 4c 24 20	 mov	 rcx, QWORD PTR stream$[rsp]
  0012d	48 8b 49 08	 mov	 rcx, QWORD PTR [rcx+8]
  00131	ff 50 48	 call	 QWORD PTR [rax+72]

; 318  : 		stream->free				(stream);

  00134	48 8b 4c 24 20	 mov	 rcx, QWORD PTR stream$[rsp]
  00139	48 8b 44 24 20	 mov	 rax, QWORD PTR stream$[rsp]
  0013e	ff 90 e0 05 00
	00		 call	 QWORD PTR [rax+1504]

; 319  : 
; 320  : 		return	NULL;

  00144	33 c0		 xor	 eax, eax
  00146	e9 30 04 00 00	 jmp	 $LN1@antlr3Comm
$LN5@antlr3Comm:

; 321  : 	}
; 322  : 
; 323  : 	// Install the common tree node stream API
; 324  : 	//
; 325  : 	stream->addNavigationNode		    =  addNavigationNode;

  0014b	48 8b 44 24 20	 mov	 rax, QWORD PTR stream$[rsp]
  00150	48 8d 0d 00 00
	00 00		 lea	 rcx, OFFSET FLAT:addNavigationNode
  00157	48 89 88 98 05
	00 00		 mov	 QWORD PTR [rax+1432], rcx

; 326  : 	stream->hasUniqueNavigationNodes    =  hasUniqueNavigationNodes;

  0015e	48 8b 44 24 20	 mov	 rax, QWORD PTR stream$[rsp]
  00163	48 8d 0d 00 00
	00 00		 lea	 rcx, OFFSET FLAT:hasUniqueNavigationNodes
  0016a	48 89 88 b8 05
	00 00		 mov	 QWORD PTR [rax+1464], rcx

; 327  : 	stream->newDownNode					=  newDownNode;

  00171	48 8b 44 24 20	 mov	 rax, QWORD PTR stream$[rsp]
  00176	48 8d 0d 00 00
	00 00		 lea	 rcx, OFFSET FLAT:newDownNode
  0017d	48 89 88 a0 05
	00 00		 mov	 QWORD PTR [rax+1440], rcx

; 328  : 	stream->newUpNode					=  newUpNode;

  00184	48 8b 44 24 20	 mov	 rax, QWORD PTR stream$[rsp]
  00189	48 8d 0d 00 00
	00 00		 lea	 rcx, OFFSET FLAT:newUpNode
  00190	48 89 88 a8 05
	00 00		 mov	 QWORD PTR [rax+1448], rcx

; 329  : 	stream->reset						=  reset;

  00197	48 8b 44 24 20	 mov	 rax, QWORD PTR stream$[rsp]
  0019c	48 8d 0d 00 00
	00 00		 lea	 rcx, OFFSET FLAT:reset
  001a3	48 89 88 d8 05
	00 00		 mov	 QWORD PTR [rax+1496], rcx

; 330  : 	stream->push						=  push;

  001aa	48 8b 44 24 20	 mov	 rax, QWORD PTR stream$[rsp]
  001af	48 8d 0d 00 00
	00 00		 lea	 rcx, OFFSET FLAT:push
  001b6	48 89 88 c8 05
	00 00		 mov	 QWORD PTR [rax+1480], rcx

; 331  : 	stream->pop							=  pop;

  001bd	48 8b 44 24 20	 mov	 rax, QWORD PTR stream$[rsp]
  001c2	48 8d 0d 00 00
	00 00		 lea	 rcx, OFFSET FLAT:pop
  001c9	48 89 88 d0 05
	00 00		 mov	 QWORD PTR [rax+1488], rcx

; 332  : 
; 333  : 	stream->free			    =  antlr3CommonTreeNodeStreamFree;

  001d0	48 8b 44 24 20	 mov	 rax, QWORD PTR stream$[rsp]
  001d5	48 8d 0d 00 00
	00 00		 lea	 rcx, OFFSET FLAT:antlr3CommonTreeNodeStreamFree
  001dc	48 89 88 e0 05
	00 00		 mov	 QWORD PTR [rax+1504], rcx

; 334  : 
; 335  : 	// Install the tree node stream API
; 336  : 	//
; 337  : 	stream->tnstream->getTreeAdaptor			=  getTreeAdaptor;

  001e3	48 8b 44 24 20	 mov	 rax, QWORD PTR stream$[rsp]
  001e8	48 8b 40 08	 mov	 rax, QWORD PTR [rax+8]
  001ec	48 8d 0d 00 00
	00 00		 lea	 rcx, OFFSET FLAT:getTreeAdaptor
  001f3	48 89 48 20	 mov	 QWORD PTR [rax+32], rcx

; 338  : 	stream->tnstream->getTreeSource				=  getTreeSource;

  001f7	48 8b 44 24 20	 mov	 rax, QWORD PTR stream$[rsp]
  001fc	48 8b 40 08	 mov	 rax, QWORD PTR [rax+8]
  00200	48 8d 0d 00 00
	00 00		 lea	 rcx, OFFSET FLAT:getTreeSource
  00207	48 89 48 18	 mov	 QWORD PTR [rax+24], rcx

; 339  : 	stream->tnstream->_LT						=  _LT;

  0020b	48 8b 44 24 20	 mov	 rax, QWORD PTR stream$[rsp]
  00210	48 8b 40 08	 mov	 rax, QWORD PTR [rax+8]
  00214	48 8d 0d 00 00
	00 00		 lea	 rcx, OFFSET FLAT:_LT
  0021b	48 89 48 10	 mov	 QWORD PTR [rax+16], rcx

; 340  : 	stream->tnstream->setUniqueNavigationNodes	=  setUniqueNavigationNodes;

  0021f	48 8b 44 24 20	 mov	 rax, QWORD PTR stream$[rsp]
  00224	48 8b 40 08	 mov	 rax, QWORD PTR [rax+8]
  00228	48 8d 0d 00 00
	00 00		 lea	 rcx, OFFSET FLAT:setUniqueNavigationNodes
  0022f	48 89 48 28	 mov	 QWORD PTR [rax+40], rcx

; 341  : 	stream->tnstream->toString					=  toString;

  00233	48 8b 44 24 20	 mov	 rax, QWORD PTR stream$[rsp]
  00238	48 8b 40 08	 mov	 rax, QWORD PTR [rax+8]
  0023c	48 8d 0d 00 00
	00 00		 lea	 rcx, OFFSET FLAT:toString
  00243	48 89 48 30	 mov	 QWORD PTR [rax+48], rcx

; 342  : 	stream->tnstream->toStringSS				=  toStringSS;

  00247	48 8b 44 24 20	 mov	 rax, QWORD PTR stream$[rsp]
  0024c	48 8b 40 08	 mov	 rax, QWORD PTR [rax+8]
  00250	48 8d 0d 00 00
	00 00		 lea	 rcx, OFFSET FLAT:toStringSS
  00257	48 89 48 38	 mov	 QWORD PTR [rax+56], rcx

; 343  : 	stream->tnstream->toStringWork				=  toStringWork;

  0025b	48 8b 44 24 20	 mov	 rax, QWORD PTR stream$[rsp]
  00260	48 8b 40 08	 mov	 rax, QWORD PTR [rax+8]
  00264	48 8d 0d 00 00
	00 00		 lea	 rcx, OFFSET FLAT:toStringWork
  0026b	48 89 48 40	 mov	 QWORD PTR [rax+64], rcx

; 344  : 	stream->tnstream->get						=  get;

  0026f	48 8b 44 24 20	 mov	 rax, QWORD PTR stream$[rsp]
  00274	48 8b 40 08	 mov	 rax, QWORD PTR [rax+8]
  00278	48 8d 0d 00 00
	00 00		 lea	 rcx, OFFSET FLAT:get
  0027f	48 89 48 50	 mov	 QWORD PTR [rax+80], rcx

; 345  : 
; 346  : 	// Install INT_STREAM interface
; 347  : 	//
; 348  : 	stream->tnstream->istream->consume	    =  consume;

  00283	48 8b 44 24 20	 mov	 rax, QWORD PTR stream$[rsp]
  00288	48 8b 40 08	 mov	 rax, QWORD PTR [rax+8]
  0028c	48 8b 40 08	 mov	 rax, QWORD PTR [rax+8]
  00290	48 8d 0d 00 00
	00 00		 lea	 rcx, OFFSET FLAT:consume
  00297	48 89 48 28	 mov	 QWORD PTR [rax+40], rcx

; 349  : 	stream->tnstream->istream->index	    =  tindex;

  0029b	48 8b 44 24 20	 mov	 rax, QWORD PTR stream$[rsp]
  002a0	48 8b 40 08	 mov	 rax, QWORD PTR [rax+8]
  002a4	48 8b 40 08	 mov	 rax, QWORD PTR [rax+8]
  002a8	48 8d 0d 00 00
	00 00		 lea	 rcx, OFFSET FLAT:tindex
  002af	48 89 48 40	 mov	 QWORD PTR [rax+64], rcx

; 350  : 	stream->tnstream->istream->_LA			=  _LA;

  002b3	48 8b 44 24 20	 mov	 rax, QWORD PTR stream$[rsp]
  002b8	48 8b 40 08	 mov	 rax, QWORD PTR [rax+8]
  002bc	48 8b 40 08	 mov	 rax, QWORD PTR [rax+8]
  002c0	48 8d 0d 00 00
	00 00		 lea	 rcx, OFFSET FLAT:_LA
  002c7	48 89 48 30	 mov	 QWORD PTR [rax+48], rcx

; 351  : 	stream->tnstream->istream->mark			=  mark;

  002cb	48 8b 44 24 20	 mov	 rax, QWORD PTR stream$[rsp]
  002d0	48 8b 40 08	 mov	 rax, QWORD PTR [rax+8]
  002d4	48 8b 40 08	 mov	 rax, QWORD PTR [rax+8]
  002d8	48 8d 0d 00 00
	00 00		 lea	 rcx, OFFSET FLAT:mark
  002df	48 89 48 38	 mov	 QWORD PTR [rax+56], rcx

; 352  : 	stream->tnstream->istream->release	    =  release;

  002e3	48 8b 44 24 20	 mov	 rax, QWORD PTR stream$[rsp]
  002e8	48 8b 40 08	 mov	 rax, QWORD PTR [rax+8]
  002ec	48 8b 40 08	 mov	 rax, QWORD PTR [rax+8]
  002f0	48 8d 0d 00 00
	00 00		 lea	 rcx, OFFSET FLAT:release
  002f7	48 89 48 58	 mov	 QWORD PTR [rax+88], rcx

; 353  : 	stream->tnstream->istream->rewind	    =  rewindMark;

  002fb	48 8b 44 24 20	 mov	 rax, QWORD PTR stream$[rsp]
  00300	48 8b 40 08	 mov	 rax, QWORD PTR [rax+8]
  00304	48 8b 40 08	 mov	 rax, QWORD PTR [rax+8]
  00308	48 8d 0d 00 00
	00 00		 lea	 rcx, OFFSET FLAT:rewindMark
  0030f	48 89 48 48	 mov	 QWORD PTR [rax+72], rcx

; 354  : 	stream->tnstream->istream->rewindLast   =  rewindLast;

  00313	48 8b 44 24 20	 mov	 rax, QWORD PTR stream$[rsp]
  00318	48 8b 40 08	 mov	 rax, QWORD PTR [rax+8]
  0031c	48 8b 40 08	 mov	 rax, QWORD PTR [rax+8]
  00320	48 8d 0d 00 00
	00 00		 lea	 rcx, OFFSET FLAT:rewindLast
  00327	48 89 48 50	 mov	 QWORD PTR [rax+80], rcx

; 355  : 	stream->tnstream->istream->seek			=  seek;

  0032b	48 8b 44 24 20	 mov	 rax, QWORD PTR stream$[rsp]
  00330	48 8b 40 08	 mov	 rax, QWORD PTR [rax+8]
  00334	48 8b 40 08	 mov	 rax, QWORD PTR [rax+8]
  00338	48 8d 0d 00 00
	00 00		 lea	 rcx, OFFSET FLAT:seek
  0033f	48 89 48 60	 mov	 QWORD PTR [rax+96], rcx

; 356  : 	stream->tnstream->istream->size			=  size;

  00343	48 8b 44 24 20	 mov	 rax, QWORD PTR stream$[rsp]
  00348	48 8b 40 08	 mov	 rax, QWORD PTR [rax+8]
  0034c	48 8b 40 08	 mov	 rax, QWORD PTR [rax+8]
  00350	48 8d 0d 00 00
	00 00		 lea	 rcx, OFFSET FLAT:size
  00357	48 89 48 68	 mov	 QWORD PTR [rax+104], rcx

; 357  : 
; 358  : 	// Initialize data elements of INT stream
; 359  : 	//
; 360  : 	stream->tnstream->istream->type			= ANTLR3_COMMONTREENODE;

  0035b	48 8b 44 24 20	 mov	 rax, QWORD PTR stream$[rsp]
  00360	48 8b 40 08	 mov	 rax, QWORD PTR [rax+8]
  00364	48 8b 40 08	 mov	 rax, QWORD PTR [rax+8]
  00368	c7 00 04 00 00
	00		 mov	 DWORD PTR [rax], 4

; 361  : 	stream->tnstream->istream->super	    =  (stream->tnstream);

  0036e	48 8b 44 24 20	 mov	 rax, QWORD PTR stream$[rsp]
  00373	48 8b 40 08	 mov	 rax, QWORD PTR [rax+8]
  00377	48 8b 40 08	 mov	 rax, QWORD PTR [rax+8]
  0037b	48 8b 4c 24 20	 mov	 rcx, QWORD PTR stream$[rsp]
  00380	48 8b 49 08	 mov	 rcx, QWORD PTR [rcx+8]
  00384	48 89 48 10	 mov	 QWORD PTR [rax+16], rcx

; 362  : 
; 363  : 	// Initialize data elements of TREE stream
; 364  : 	//
; 365  : 	stream->tnstream->ctns =  stream;

  00388	48 8b 44 24 20	 mov	 rax, QWORD PTR stream$[rsp]
  0038d	48 8b 40 08	 mov	 rax, QWORD PTR [rax+8]
  00391	48 8b 4c 24 20	 mov	 rcx, QWORD PTR stream$[rsp]
  00396	48 89 08	 mov	 QWORD PTR [rax], rcx

; 366  : 
; 367  : 	// Initialize data elements of the COMMON TREE NODE stream
; 368  : 	//
; 369  : 	stream->super					= NULL;

  00399	48 8b 44 24 20	 mov	 rax, QWORD PTR stream$[rsp]
  0039e	48 c7 00 00 00
	00 00		 mov	 QWORD PTR [rax], 0

; 370  : 	stream->uniqueNavigationNodes	= ANTLR3_FALSE;

  003a5	48 8b 44 24 20	 mov	 rax, QWORD PTR stream$[rsp]
  003aa	c6 80 00 05 00
	00 00		 mov	 BYTE PTR [rax+1280], 0

; 371  : 	stream->markers					= NULL;

  003b1	48 8b 44 24 20	 mov	 rax, QWORD PTR stream$[rsp]
  003b6	48 c7 80 60 05
	00 00 00 00 00
	00		 mov	 QWORD PTR [rax+1376], 0

; 372  : 	stream->nodeStack				= antlr3StackNew(INITIAL_CALL_STACK_SIZE);

  003c1	b9 0a 00 00 00	 mov	 ecx, 10
  003c6	e8 00 00 00 00	 call	 antlr3StackNew
  003cb	48 8b 4c 24 20	 mov	 rcx, QWORD PTR stream$[rsp]
  003d0	48 89 81 18 05
	00 00		 mov	 QWORD PTR [rcx+1304], rax

; 373  : 
; 374  : 	// Create the node list map
; 375  : 	//
; 376  : 	if	(hint == 0)

  003d7	83 7c 24 48 00	 cmp	 DWORD PTR hint$[rsp], 0
  003dc	75 08		 jne	 SHORT $LN6@antlr3Comm

; 377  : 	{
; 378  : 		hint = DEFAULT_INITIAL_BUFFER_SIZE;

  003de	c7 44 24 48 64
	00 00 00	 mov	 DWORD PTR hint$[rsp], 100 ; 00000064H
$LN6@antlr3Comm:

; 379  : 	}
; 380  : 	stream->nodes	= antlr3VectorNew(hint);

  003e6	8b 4c 24 48	 mov	 ecx, DWORD PTR hint$[rsp]
  003ea	e8 00 00 00 00	 call	 antlr3VectorNew
  003ef	48 8b 4c 24 20	 mov	 rcx, QWORD PTR stream$[rsp]
  003f4	48 89 81 f8 04
	00 00		 mov	 QWORD PTR [rcx+1272], rax

; 381  : 	stream->p		= -1;

  003fb	48 8b 44 24 20	 mov	 rax, QWORD PTR stream$[rsp]
  00400	c7 80 20 05 00
	00 ff ff ff ff	 mov	 DWORD PTR [rax+1312], -1

; 382  : 
; 383  : 	// Install the navigation nodes     
; 384  : 	//
; 385  : 	antlr3SetCTAPI(&(stream->UP));

  0040a	48 8b 44 24 20	 mov	 rax, QWORD PTR stream$[rsp]
  0040f	48 05 50 01 00
	00		 add	 rax, 336		; 00000150H
  00415	48 8b c8	 mov	 rcx, rax
  00418	e8 00 00 00 00	 call	 antlr3SetCTAPI

; 386  : 	antlr3SetCTAPI(&(stream->DOWN));

  0041d	48 8b 44 24 20	 mov	 rax, QWORD PTR stream$[rsp]
  00422	48 83 c0 18	 add	 rax, 24
  00426	48 8b c8	 mov	 rcx, rax
  00429	e8 00 00 00 00	 call	 antlr3SetCTAPI

; 387  : 	antlr3SetCTAPI(&(stream->EOF_NODE));

  0042e	48 8b 44 24 20	 mov	 rax, QWORD PTR stream$[rsp]
  00433	48 05 88 02 00
	00		 add	 rax, 648		; 00000288H
  00439	48 8b c8	 mov	 rcx, rax
  0043c	e8 00 00 00 00	 call	 antlr3SetCTAPI

; 388  : 	antlr3SetCTAPI(&(stream->INVALID_NODE));

  00441	48 8b 44 24 20	 mov	 rax, QWORD PTR stream$[rsp]
  00446	48 05 c0 03 00
	00		 add	 rax, 960		; 000003c0H
  0044c	48 8b c8	 mov	 rcx, rax
  0044f	e8 00 00 00 00	 call	 antlr3SetCTAPI

; 389  : 
; 390  : 	token						= antlr3CommonTokenNew(ANTLR3_TOKEN_UP);

  00454	b9 03 00 00 00	 mov	 ecx, 3
  00459	e8 00 00 00 00	 call	 antlr3CommonTokenNew
  0045e	48 89 44 24 28	 mov	 QWORD PTR token$[rsp], rax

; 391  : 	token->strFactory			= strFactory;

  00463	48 8b 44 24 28	 mov	 rax, QWORD PTR token$[rsp]
  00468	48 8b 4c 24 40	 mov	 rcx, QWORD PTR strFactory$[rsp]
  0046d	48 89 48 08	 mov	 QWORD PTR [rax+8], rcx

; 392  : 	token->textState			= ANTLR3_TEXT_CHARP;

  00471	48 8b 44 24 28	 mov	 rax, QWORD PTR token$[rsp]
  00476	c7 40 48 01 00
	00 00		 mov	 DWORD PTR [rax+72], 1

; 393  : 	token->tokText.chars		= (pANTLR3_UCHAR)"UP";

  0047d	48 8b 44 24 28	 mov	 rax, QWORD PTR token$[rsp]
  00482	48 8d 0d 00 00
	00 00		 lea	 rcx, OFFSET FLAT:??_C@_02NAHCJHOC@UP?$AA@
  00489	48 89 48 50	 mov	 QWORD PTR [rax+80], rcx

; 394  : 	stream->UP.token			= token;

  0048d	48 8b 44 24 20	 mov	 rax, QWORD PTR stream$[rsp]
  00492	48 8b 4c 24 28	 mov	 rcx, QWORD PTR token$[rsp]
  00497	48 89 88 68 01
	00 00		 mov	 QWORD PTR [rax+360], rcx

; 395  : 
; 396  : 	token						= antlr3CommonTokenNew(ANTLR3_TOKEN_DOWN);

  0049e	b9 02 00 00 00	 mov	 ecx, 2
  004a3	e8 00 00 00 00	 call	 antlr3CommonTokenNew
  004a8	48 89 44 24 28	 mov	 QWORD PTR token$[rsp], rax

; 397  : 	token->strFactory			= strFactory;

  004ad	48 8b 44 24 28	 mov	 rax, QWORD PTR token$[rsp]
  004b2	48 8b 4c 24 40	 mov	 rcx, QWORD PTR strFactory$[rsp]
  004b7	48 89 48 08	 mov	 QWORD PTR [rax+8], rcx

; 398  : 	token->textState			= ANTLR3_TEXT_CHARP;

  004bb	48 8b 44 24 28	 mov	 rax, QWORD PTR token$[rsp]
  004c0	c7 40 48 01 00
	00 00		 mov	 DWORD PTR [rax+72], 1

; 399  : 	token->tokText.chars		= (pANTLR3_UCHAR)"DOWN";

  004c7	48 8b 44 24 28	 mov	 rax, QWORD PTR token$[rsp]
  004cc	48 8d 0d 00 00
	00 00		 lea	 rcx, OFFSET FLAT:??_C@_04FANAOELO@DOWN?$AA@
  004d3	48 89 48 50	 mov	 QWORD PTR [rax+80], rcx

; 400  : 	stream->DOWN.token			= token;

  004d7	48 8b 44 24 20	 mov	 rax, QWORD PTR stream$[rsp]
  004dc	48 8b 4c 24 28	 mov	 rcx, QWORD PTR token$[rsp]
  004e1	48 89 48 30	 mov	 QWORD PTR [rax+48], rcx

; 401  : 
; 402  : 	token						= antlr3CommonTokenNew(ANTLR3_TOKEN_EOF);

  004e5	b9 ff ff ff ff	 mov	 ecx, -1			; ffffffffH
  004ea	e8 00 00 00 00	 call	 antlr3CommonTokenNew
  004ef	48 89 44 24 28	 mov	 QWORD PTR token$[rsp], rax

; 403  : 	token->strFactory			= strFactory;

  004f4	48 8b 44 24 28	 mov	 rax, QWORD PTR token$[rsp]
  004f9	48 8b 4c 24 40	 mov	 rcx, QWORD PTR strFactory$[rsp]
  004fe	48 89 48 08	 mov	 QWORD PTR [rax+8], rcx

; 404  : 	token->textState			= ANTLR3_TEXT_CHARP;

  00502	48 8b 44 24 28	 mov	 rax, QWORD PTR token$[rsp]
  00507	c7 40 48 01 00
	00 00		 mov	 DWORD PTR [rax+72], 1

; 405  : 	token->tokText.chars		= (pANTLR3_UCHAR)"EOF";

  0050e	48 8b 44 24 28	 mov	 rax, QWORD PTR token$[rsp]
  00513	48 8d 0d 00 00
	00 00		 lea	 rcx, OFFSET FLAT:??_C@_03KPJEKKJC@EOF?$AA@
  0051a	48 89 48 50	 mov	 QWORD PTR [rax+80], rcx

; 406  : 	stream->EOF_NODE.token		= token;

  0051e	48 8b 44 24 20	 mov	 rax, QWORD PTR stream$[rsp]
  00523	48 8b 4c 24 28	 mov	 rcx, QWORD PTR token$[rsp]
  00528	48 89 88 a0 02
	00 00		 mov	 QWORD PTR [rax+672], rcx

; 407  : 
; 408  : 	token						= antlr3CommonTokenNew(ANTLR3_TOKEN_INVALID);

  0052f	33 c9		 xor	 ecx, ecx
  00531	e8 00 00 00 00	 call	 antlr3CommonTokenNew
  00536	48 89 44 24 28	 mov	 QWORD PTR token$[rsp], rax

; 409  : 	token->strFactory			= strFactory;

  0053b	48 8b 44 24 28	 mov	 rax, QWORD PTR token$[rsp]
  00540	48 8b 4c 24 40	 mov	 rcx, QWORD PTR strFactory$[rsp]
  00545	48 89 48 08	 mov	 QWORD PTR [rax+8], rcx

; 410  : 	token->textState			= ANTLR3_TEXT_CHARP;

  00549	48 8b 44 24 28	 mov	 rax, QWORD PTR token$[rsp]
  0054e	c7 40 48 01 00
	00 00		 mov	 DWORD PTR [rax+72], 1

; 411  : 	token->tokText.chars		= (pANTLR3_UCHAR)"INVALID";

  00555	48 8b 44 24 28	 mov	 rax, QWORD PTR token$[rsp]
  0055a	48 8d 0d 00 00
	00 00		 lea	 rcx, OFFSET FLAT:??_C@_07DNODLGKM@INVALID?$AA@
  00561	48 89 48 50	 mov	 QWORD PTR [rax+80], rcx

; 412  : 	stream->INVALID_NODE.token	= token;

  00565	48 8b 44 24 20	 mov	 rax, QWORD PTR stream$[rsp]
  0056a	48 8b 4c 24 28	 mov	 rcx, QWORD PTR token$[rsp]
  0056f	48 89 88 d8 03
	00 00		 mov	 QWORD PTR [rax+984], rcx

; 413  : 
; 414  : 
; 415  : 	return  stream;

  00576	48 8b 44 24 20	 mov	 rax, QWORD PTR stream$[rsp]
$LN1@antlr3Comm:

; 416  : }

  0057b	48 83 c4 30	 add	 rsp, 48			; 00000030H
  0057f	5f		 pop	 rdi
  00580	c3		 ret	 0
antlr3CommonTreeNodeStreamNew ENDP
_TEXT	ENDS
; Function compile flags: /Odtp /RTCsu
; File c:\oss\third_party\antlr\libantlr3c-3.4\src\antlr3commontreenodestream.c
;	COMDAT antlr3CommonTreeNodeStreamNewTree
_TEXT	SEGMENT
stream$ = 32
tree$ = 64
hint$ = 72
antlr3CommonTreeNodeStreamNewTree PROC			; COMDAT

; 117  : {

$LN4:
  00000	89 54 24 10	 mov	 DWORD PTR [rsp+16], edx
  00004	48 89 4c 24 08	 mov	 QWORD PTR [rsp+8], rcx
  00009	57		 push	 rdi
  0000a	48 83 ec 30	 sub	 rsp, 48			; 00000030H
  0000e	48 8b fc	 mov	 rdi, rsp
  00011	b9 0c 00 00 00	 mov	 ecx, 12
  00016	b8 cc cc cc cc	 mov	 eax, -858993460		; ccccccccH
  0001b	f3 ab		 rep stosd
  0001d	48 8b 4c 24 40	 mov	 rcx, QWORD PTR [rsp+64]

; 118  : 	pANTLR3_COMMON_TREE_NODE_STREAM stream;
; 119  : 
; 120  : 	stream = antlr3CommonTreeNodeStreamNew(tree->strFactory, hint);

  00022	8b 54 24 48	 mov	 edx, DWORD PTR hint$[rsp]
  00026	48 8b 44 24 40	 mov	 rax, QWORD PTR tree$[rsp]
  0002b	48 8b 48 20	 mov	 rcx, QWORD PTR [rax+32]
  0002f	e8 00 00 00 00	 call	 antlr3CommonTreeNodeStreamNew
  00034	48 89 44 24 20	 mov	 QWORD PTR stream$[rsp], rax

; 121  : 
; 122  : 	if	(stream == NULL)

  00039	48 83 7c 24 20
	00		 cmp	 QWORD PTR stream$[rsp], 0
  0003f	75 04		 jne	 SHORT $LN2@antlr3Comm

; 123  : 	{
; 124  : 		return	NULL;

  00041	33 c0		 xor	 eax, eax
  00043	eb 16		 jmp	 SHORT $LN1@antlr3Comm
$LN2@antlr3Comm:

; 125  : 	}
; 126  : 	stream->root    = tree;

  00045	48 8b 44 24 20	 mov	 rax, QWORD PTR stream$[rsp]
  0004a	48 8b 4c 24 40	 mov	 rcx, QWORD PTR tree$[rsp]
  0004f	48 89 88 08 05
	00 00		 mov	 QWORD PTR [rax+1288], rcx

; 127  : 
; 128  : 	return stream;

  00056	48 8b 44 24 20	 mov	 rax, QWORD PTR stream$[rsp]
$LN1@antlr3Comm:

; 129  : }

  0005b	48 83 c4 30	 add	 rsp, 48			; 00000030H
  0005f	5f		 pop	 rdi
  00060	c3		 ret	 0
antlr3CommonTreeNodeStreamNewTree ENDP
_TEXT	ENDS
END
