; Listing generated by Microsoft (R) Optimizing Compiler Version 19.00.24215.1 

include listing.inc

INCLUDELIB MSVCRTD
INCLUDELIB OLDNAMES

PUBLIC	antlr3c8toAntlrc
EXTRN	_RTC_InitBase:PROC
EXTRN	_RTC_Shutdown:PROC
;	COMDAT pdata
pdata	SEGMENT
$pdata$antlr3c8toAntlrc DD imagerel $LN3
	DD	imagerel $LN3+12
	DD	imagerel $unwind$antlr3c8toAntlrc
pdata	ENDS
;	COMDAT rtc$TMZ
rtc$TMZ	SEGMENT
_RTC_Shutdown.rtc$TMZ DQ FLAT:_RTC_Shutdown
rtc$TMZ	ENDS
;	COMDAT rtc$IMZ
rtc$IMZ	SEGMENT
_RTC_InitBase.rtc$IMZ DQ FLAT:_RTC_InitBase
rtc$IMZ	ENDS
;	COMDAT xdata
xdata	SEGMENT
$unwind$antlr3c8toAntlrc DD 010501H
	DD	07005H
xdata	ENDS
; Function compile flags: /Odtp /RTCsu
; File c:\oss\third_party\antlr\libantlr3c-3.4\src\antlr3encodings.c
;	COMDAT antlr3c8toAntlrc
_TEXT	SEGMENT
inc$ = 16
antlr3c8toAntlrc PROC					; COMDAT

; 48   : {

$LN3:
  00000	88 4c 24 08	 mov	 BYTE PTR [rsp+8], cl
  00004	57		 push	 rdi

; 49   :     return  (ANTLR3_UCHAR)(inc);

  00005	0f be 44 24 10	 movsx	 eax, BYTE PTR inc$[rsp]

; 50   : }

  0000a	5f		 pop	 rdi
  0000b	c3		 ret	 0
antlr3c8toAntlrc ENDP
_TEXT	ENDS
END
